

Microchip Technology PIC18 LITE Macro Assembler V1.34 build -361300703 
                                                                                               Tue Oct 18 20:18:28 2016

Microchip Technology Omniscient Code Generator (Lite mode) build 201502162209
     1                           	processor	18F26J50
     2                           	fnconf	rparam,??,?,0
     3                           	opt	pw 120
     4                           	opt	lm
     5                           	psect	text0,global,reloc=2,class=CODE,delta=1
     6                           	psect	cinit,global,reloc=2,class=CODE,delta=1
     7                           	psect	cstackCOMRAM,global,class=COMRAM,space=1,delta=1
     8                           	psect	text1,global,reloc=2,class=CODE,delta=1
     9                           	psect	text2,global,reloc=2,class=CODE,delta=1
    10                           	psect	text3,global,reloc=2,class=CODE,delta=1
    11                           	psect	text4,global,reloc=2,class=CODE,delta=1
    12                           	psect	text5,global,reloc=2,class=CODE,delta=1
    13                           	psect	text6,global,reloc=2,class=CODE,delta=1
    14                           	psect	text7,global,reloc=2,class=CODE,delta=1
    15                           	psect	text8,global,reloc=2,class=CODE,delta=1
    16                           	psect	text9,global,reloc=2,class=CODE,delta=1
    17                           	psect	text10,global,reloc=2,class=CODE,delta=1
    18                           	psect	text11,global,reloc=2,class=CODE,delta=1
    19                           	psect	text12,global,reloc=2,class=CODE,delta=1
    20                           	psect	text13,global,reloc=2,class=CODE,delta=1
    21                           	psect	text14,global,reloc=2,class=CODE,delta=1
    22                           	psect	text15,global,reloc=2,class=CODE,delta=1
    23                           	psect	text16,global,reloc=2,class=CODE,delta=1
    24                           	psect	text17,global,reloc=2,class=CODE,delta=1
    25                           	psect	text18,global,reloc=2,class=CODE,delta=1
    26                           	psect	text19,global,reloc=2,class=CODE,delta=1
    27                           	psect	text20,global,reloc=2,class=CODE,delta=1
    28                           	psect	text21,global,reloc=2,class=CODE,delta=1
    29                           	psect	text22,global,reloc=2,class=CODE,delta=1
    30                           	psect	text23,global,reloc=2,class=CODE,delta=1
    31                           	psect	text24,global,reloc=2,class=CODE,delta=1
    32                           	psect	text25,global,reloc=2,class=CODE,delta=1
    33                           	psect	text26,global,reloc=2,class=CODE,delta=1
    34                           	psect	text27,global,reloc=2,class=CODE,delta=1
    35                           	psect	text28,global,reloc=2,class=CODE,delta=1
    36                           	psect	text29,global,reloc=2,class=CODE,delta=1
    37                           	psect	text30,global,reloc=2,class=CODE,delta=1
    38                           	psect	text31,global,reloc=2,class=CODE,delta=1
    39                           	psect	text32,global,reloc=2,class=CODE,delta=1
    40                           	psect	intsave_regs,global,class=BIGRAM,space=1,delta=1
    41                           	psect	rparam,global,class=COMRAM,space=1,delta=1
    42  0000                     _ANCON0	set	3912
    43  0000                     _ANCON1	set	3913
    44  0000                     _RTCCFGbits	set	3903
    45  0000                     _ADCON0	set	4034
    46  0000                     _ADCON0bits	set	4034
    47  0000                     _ADCON1	set	4033
    48  0000                     _ADRESH	set	4036
    49  0000                     _LATBbits	set	3978
    50  0000                     _LATCbits	set	3979
    51  0000                     _OSCCONbits	set	4051
    52  0000                     _OSCTUNEbits	set	3995
    53  0000                     _PORTBbits	set	3969
    54  0000                     _T1CONbits	set	4045
    55  0000                     _TRISA	set	3986
    56  0000                     _TRISB	set	3987
    57  0000                     _TRISC	set	3988
    58                           
    59 ;;
    60 ;;Main: autosize = 0, tempsize = 0, incstack = 0, save=0
    61 ;;
    62 ;; *************** function _main *****************
    63 ;; Defined at:
    64 ;;		line 83 in file "main.c"
    65 ;; Parameters:    Size  Location     Type
    66 ;;		None
    67 ;; Auto vars:     Size  Location     Type
    68 ;;  temperatura     2   63[COMRAM] int 
    69 ;;  i               2   61[COMRAM] int 
    70 ;; Return value:  Size  Location     Type
    71 ;;                  2   53[None  ] int 
    72 ;; Registers used:
    73 ;;		wreg, status,2, status,0, prodl, prodh, cstack
    74 ;; Tracked objects:
    75 ;;		On entry : 0/0
    76 ;;		On exit  : 0/0
    77 ;;		Unchanged: 0/0
    78 ;; Data sizes:     COMRAM   BANK0   BANK1   BANK2   BANK3   BANK4   BANK5   BANK6   BANK7   BANK8   BANK9  BANK10  BANK1
      +1  BANK12  BANK13  BANK14
    79 ;;      Params:         0       0       0       0       0       0       0       0       0       0       0       0       
      +0       0       0       0
    80 ;;      Locals:         4       0       0       0       0       0       0       0       0       0       0       0       
      +0       0       0       0
    81 ;;      Temps:          0       0       0       0       0       0       0       0       0       0       0       0       
      +0       0       0       0
    82 ;;      Totals:         4       0       0       0       0       0       0       0       0       0       0       0       
      +0       0       0       0
    83 ;;Total ram usage:        4 bytes
    84 ;; Hardware stack levels required when called:    5
    85 ;; This function calls:
    86 ;;		_imprimir_temperatura
    87 ;;		_leer_temperatura
    88 ;;		_mostrar_fuera_rango
    89 ;;		_setup
    90 ;; This function is called by:
    91 ;;		Startup code after reset
    92 ;; This function uses a non-reentrant model
    93 ;;
    94                           
    95                           	psect	text0
    96  00F9D4                     __ptext0:
    97                           	opt stack 0
    98  00F9D4                     _main:
    99                           	opt stack 26
   100                           
   101                           ;main.c: 85: setup();
   102                           
   103                           ;incstack = 0
   104  00F9D4  EC4D  F07C         	call	_setup	;wreg free
   105                           
   106                           ;main.c: 86: int temperatura = 0;
   107  00F9D8  0E00               	movlw	0
   108  00F9DA  6E41               	movwf	main@temperatura+1,c
   109  00F9DC  0E00               	movlw	0
   110  00F9DE  6E40               	movwf	main@temperatura,c
   111  00F9E0  D000               	goto	l1507
   112  00F9E2                     l1507:
   113                           
   114                           ;main.c: 91: temperatura = leer_temperatura();
   115  00F9E2  EC31  F07C         	call	_leer_temperatura	;wreg free
   116  00F9E6  C039  F040         	movff	?_leer_temperatura,main@temperatura
   117  00F9EA  C03A  F041         	movff	?_leer_temperatura+1,main@temperatura+1
   118                           
   119                           ;main.c: 93: if (temperatura < 0 || temperatura > 99)
   120  00F9EE  BE41               	btfsc	main@temperatura+1,7,c
   121  00F9F0  D00A               	goto	l1511
   122  00F9F2  BE41               	btfsc	main@temperatura+1,7,c
   123  00F9F4  D00B               	goto	l1513
   124  00F9F6  5041               	movf	main@temperatura+1,w,c
   125  00F9F8  E106               	bnz	l1511
   126  00F9FA  0E64               	movlw	100
   127  00F9FC  5C40               	subwf	main@temperatura,w,c
   128  00F9FE  B0D8               	btfsc	status,0,c
   129  00FA00  D002               	goto	l1511
   130  00FA02  D004               	goto	l1513
   131  00FA04  D000               	goto	l1511
   132  00FA06                     l1511:
   133                           
   134                           ;main.c: 94: mostrar_fuera_rango();
   135  00FA06  EC18  F07C         	call	_mostrar_fuera_rango	;wreg free
   136  00FA0A  D7EB               	goto	l1507
   137  00FA0C                     l1513:
   138                           
   139                           ;main.c: 95: else{
   140                           ;main.c: 96: i = 0;
   141  00FA0C  0E00               	movlw	0
   142  00FA0E  6E3F               	movwf	main@i+1,c
   143  00FA10  0E00               	movlw	0
   144  00FA12  6E3E               	movwf	main@i,c
   145                           
   146                           ;main.c: 97: while (i < 50){
   147  00FA14  D009               	goto	l1519
   148  00FA16                     l1515:
   149                           
   150                           ;main.c: 98: imprimir_temperatura(temperatura);
   151  00FA16  C040  F009         	movff	main@temperatura,imprimir_temperatura@temp
   152  00FA1A  C041  F00A         	movff	main@temperatura+1,imprimir_temperatura@temp+1
   153  00FA1E  ECB7  F07C         	call	_imprimir_temperatura	;wreg free
   154                           
   155                           ;main.c: 99: i++;
   156  00FA22  4A3E               	infsnz	main@i,f,c
   157  00FA24  2A3F               	incf	main@i+1,f,c
   158  00FA26  D000               	goto	l1519
   159  00FA28                     l1519:
   160  00FA28  BE3F               	btfsc	main@i+1,7,c
   161  00FA2A  D7F5               	goto	l1515
   162  00FA2C  503F               	movf	main@i+1,w,c
   163  00FA2E  E1D9               	bnz	l1507
   164  00FA30  0E32               	movlw	50
   165  00FA32  5C3E               	subwf	main@i,w,c
   166  00FA34  B0D8               	btfsc	status,0,c
   167  00FA36  D7D5               	goto	l1507
   168  00FA38  D7EE               	goto	l1515
   169  00FA3A  D7D3               	goto	l1507
   170                           
   171                           ;main.c: 100: }
   172                           ;main.c: 101: }
   173                           ;main.c: 102: }
   174                           ;main.c: 104: return 0;
   175                           ;	Return value of _main is never used
   176  00FA3C  EF00  F000         	goto	start
   177  00FA40                     __end_of_main:
   178                           	opt stack 0
   179                           status	equ	0xFD8
   180                           
   181                           	psect	cinit
   182  00F710                     __pcinit:
   183                           	opt stack 0
   184  00F710                     start_initialization:
   185                           	opt stack 0
   186  00F710                     __initialization:
   187                           	opt stack 0
   188  00F710                     end_of_initialization:
   189                           	opt stack 0
   190  00F710                     __end_of__initialization:
   191                           	opt stack 0
   192  00F710  0E00               	movlw	low (__Lmediumconst shr (0+16))
   193  00F712  6EF8               	movwf	tblptru,c
   194  00F714  0100               	movlb	0
   195  00F716  EFEA  F07C         	goto	_main	;jump to C main() function
   196                           tblptru	equ	0xFF8
   197                           status	equ	0xFD8
   198                           
   199                           	psect	cstackCOMRAM
   200  000001                     __pcstackCOMRAM:
   201                           	opt stack 0
   202  000001                     ??_tiempo_encendido_segmento:
   203  000001                     ?___wmul:
   204                           	opt stack 0
   205  000001                     ?___awdiv:
   206                           	opt stack 0
   207  000001                     ?___ftpack:
   208                           	opt stack 0
   209  000001                     ___wmul@multiplier:
   210                           	opt stack 0
   211  000001                     ___awdiv@dividend:
   212                           	opt stack 0
   213  000001                     ___ftpack@arg:
   214                           	opt stack 0
   215                           
   216                           ; 3 bytes @ 0x0
   217  000001                     	ds	1
   218  000002                     construir_numero@number:
   219                           	opt stack 0
   220                           
   221                           ; 2 bytes @ 0x1
   222  000002                     	ds	1
   223  000003                     ___wmul@multiplicand:
   224                           	opt stack 0
   225  000003                     ___awdiv@divisor:
   226                           	opt stack 0
   227                           
   228                           ; 2 bytes @ 0x2
   229  000003                     	ds	1
   230  000004                     ??_construir_numero:
   231  000004                     ___ftpack@exp:
   232                           	opt stack 0
   233                           
   234                           ; 1 bytes @ 0x3
   235  000004                     	ds	1
   236  000005                     ___awdiv@counter:
   237                           	opt stack 0
   238  000005                     ___ftpack@sign:
   239                           	opt stack 0
   240  000005                     ___wmul@product:
   241                           	opt stack 0
   242                           
   243                           ; 2 bytes @ 0x4
   244  000005                     	ds	1
   245  000006                     ??___ftpack:
   246  000006                     ___awdiv@sign:
   247                           	opt stack 0
   248                           
   249                           ; 1 bytes @ 0x5
   250  000006                     	ds	1
   251  000007                     ___awdiv@quotient:
   252                           	opt stack 0
   253                           
   254                           ; 2 bytes @ 0x6
   255  000007                     	ds	2
   256  000009                     ?___awtoft:
   257                           	opt stack 0
   258  000009                     imprimir_temperatura@temp:
   259                           	opt stack 0
   260  000009                     ___awtoft@c:
   261                           	opt stack 0
   262                           
   263                           ; 2 bytes @ 0x8
   264  000009                     	ds	2
   265  00000B                     imprimir_temperatura@unidad:
   266                           	opt stack 0
   267                           
   268                           ; 2 bytes @ 0xA
   269  00000B                     	ds	1
   270  00000C                     ___awtoft@sign:
   271                           	opt stack 0
   272                           
   273                           ; 1 bytes @ 0xB
   274  00000C                     	ds	1
   275  00000D                     ?___ftmul:
   276                           	opt stack 0
   277  00000D                     imprimir_temperatura@decena:
   278                           	opt stack 0
   279  00000D                     ___ftmul@f1:
   280                           	opt stack 0
   281                           
   282                           ; 3 bytes @ 0xC
   283  00000D                     	ds	3
   284  000010                     ___ftmul@f2:
   285                           	opt stack 0
   286                           
   287                           ; 3 bytes @ 0xF
   288  000010                     	ds	3
   289  000013                     ??___ftmul:
   290                           
   291                           ; 0 bytes @ 0x12
   292  000013                     	ds	3
   293  000016                     ___ftmul@exp:
   294                           	opt stack 0
   295                           
   296                           ; 1 bytes @ 0x15
   297  000016                     	ds	1
   298  000017                     ___ftmul@f3_as_product:
   299                           	opt stack 0
   300                           
   301                           ; 3 bytes @ 0x16
   302  000017                     	ds	3
   303  00001A                     ___ftmul@cntr:
   304                           	opt stack 0
   305                           
   306                           ; 1 bytes @ 0x19
   307  00001A                     	ds	1
   308  00001B                     ___ftmul@sign:
   309                           	opt stack 0
   310                           
   311                           ; 1 bytes @ 0x1A
   312  00001B                     	ds	1
   313  00001C                     ?___ftadd:
   314                           	opt stack 0
   315  00001C                     ___ftadd@f1:
   316                           	opt stack 0
   317                           
   318                           ; 3 bytes @ 0x1B
   319  00001C                     	ds	3
   320  00001F                     ___ftadd@f2:
   321                           	opt stack 0
   322                           
   323                           ; 3 bytes @ 0x1E
   324  00001F                     	ds	3
   325  000022                     ??___ftadd:
   326                           
   327                           ; 0 bytes @ 0x21
   328  000022                     	ds	3
   329  000025                     ___ftadd@sign:
   330                           	opt stack 0
   331                           
   332                           ; 1 bytes @ 0x24
   333  000025                     	ds	1
   334  000026                     ___ftadd@exp2:
   335                           	opt stack 0
   336                           
   337                           ; 1 bytes @ 0x25
   338  000026                     	ds	1
   339  000027                     ___ftadd@exp1:
   340                           	opt stack 0
   341                           
   342                           ; 1 bytes @ 0x26
   343  000027                     	ds	1
   344  000028                     ?___fttol:
   345                           	opt stack 0
   346  000028                     ___fttol@f1:
   347                           	opt stack 0
   348                           
   349                           ; 3 bytes @ 0x27
   350  000028                     	ds	4
   351  00002C                     ??___fttol:
   352                           
   353                           ; 0 bytes @ 0x2B
   354  00002C                     	ds	5
   355  000031                     ___fttol@sign1:
   356                           	opt stack 0
   357                           
   358                           ; 1 bytes @ 0x30
   359  000031                     	ds	1
   360  000032                     ___fttol@lval:
   361                           	opt stack 0
   362                           
   363                           ; 4 bytes @ 0x31
   364  000032                     	ds	4
   365  000036                     ___fttol@exp1:
   366                           	opt stack 0
   367                           
   368                           ; 1 bytes @ 0x35
   369  000036                     	ds	1
   370  000037                     ?_calcular_temperatura:
   371                           	opt stack 0
   372  000037                     calcular_temperatura@voltage:
   373                           	opt stack 0
   374                           
   375                           ; 2 bytes @ 0x36
   376  000037                     	ds	2
   377  000039                     ?_leer_temperatura:
   378                           	opt stack 0
   379                           
   380                           ; 2 bytes @ 0x38
   381  000039                     	ds	2
   382  00003B                     ??_leer_temperatura:
   383                           
   384                           ; 0 bytes @ 0x3A
   385  00003B                     	ds	1
   386  00003C                     leer_temperatura@voltage:
   387                           	opt stack 0
   388                           
   389                           ; 2 bytes @ 0x3B
   390  00003C                     	ds	2
   391  00003E                     main@i:
   392                           	opt stack 0
   393                           
   394                           ; 2 bytes @ 0x3D
   395  00003E                     	ds	2
   396  000040                     main@temperatura:
   397                           	opt stack 0
   398                           
   399                           ; 2 bytes @ 0x3F
   400  000040                     	ds	2
   401                           tblptru	equ	0xFF8
   402                           status	equ	0xFD8
   403                           
   404 ;; *************** function _setup *****************
   405 ;; Defined at:
   406 ;;		line 26 in file "main.c"
   407 ;; Parameters:    Size  Location     Type
   408 ;;		None
   409 ;; Auto vars:     Size  Location     Type
   410 ;;		None
   411 ;; Return value:  Size  Location     Type
   412 ;;		None               void
   413 ;; Registers used:
   414 ;;		wreg, status,2
   415 ;; Tracked objects:
   416 ;;		On entry : 0/0
   417 ;;		On exit  : 0/0
   418 ;;		Unchanged: 0/0
   419 ;; Data sizes:     COMRAM   BANK0   BANK1   BANK2   BANK3   BANK4   BANK5   BANK6   BANK7   BANK8   BANK9  BANK10  BANK1
      +1  BANK12  BANK13  BANK14
   420 ;;      Params:         0       0       0       0       0       0       0       0       0       0       0       0       
      +0       0       0       0
   421 ;;      Locals:         0       0       0       0       0       0       0       0       0       0       0       0       
      +0       0       0       0
   422 ;;      Temps:          0       0       0       0       0       0       0       0       0       0       0       0       
      +0       0       0       0
   423 ;;      Totals:         0       0       0       0       0       0       0       0       0       0       0       0       
      +0       0       0       0
   424 ;;Total ram usage:        0 bytes
   425 ;; Hardware stack levels used:    1
   426 ;; This function calls:
   427 ;;		Nothing
   428 ;; This function is called by:
   429 ;;		_main
   430 ;; This function uses a non-reentrant model
   431 ;;
   432                           
   433                           	psect	text1
   434  00F89A                     __ptext1:
   435                           	opt stack 0
   436  00F89A                     _setup:
   437                           	opt stack 30
   438                           
   439                           ;main.c: 28: OSCTUNEbits.INTSRC=1;
   440                           
   441                           ;incstack = 0
   442  00F89A  8E9B               	bsf	3995,7,c	;volatile
   443                           
   444                           ;main.c: 29: OSCTUNEbits.PLLEN=0;
   445  00F89C  9C9B               	bcf	3995,6,c	;volatile
   446                           
   447                           ;main.c: 30: OSCCONbits.IRCF0=1;
   448  00F89E  88D3               	bsf	4051,4,c	;volatile
   449                           
   450                           ;main.c: 31: OSCCONbits.IRCF1=1;
   451  00F8A0  8AD3               	bsf	4051,5,c	;volatile
   452                           
   453                           ;main.c: 32: OSCCONbits.IRCF2=1;
   454  00F8A2  8CD3               	bsf	4051,6,c	;volatile
   455                           
   456                           ;main.c: 33: OSCCONbits.SCS0=0;
   457  00F8A4  90D3               	bcf	4051,0,c	;volatile
   458                           
   459                           ;main.c: 34: OSCCONbits.SCS1=0;
   460  00F8A6  92D3               	bcf	4051,1,c	;volatile
   461                           
   462                           ;main.c: 35: TRISA = 0b11111001;
   463  00F8A8  0EF9               	movlw	249
   464  00F8AA  6E92               	movwf	3986,c	;volatile
   465                           
   466                           ;main.c: 36: TRISB = 0;
   467  00F8AC  0E00               	movlw	0
   468  00F8AE  6E93               	movwf	3987,c	;volatile
   469                           
   470                           ;main.c: 37: TRISC = 0b00000111;
   471  00F8B0  0E07               	movlw	7
   472  00F8B2  6E94               	movwf	3988,c	;volatile
   473                           
   474                           ;main.c: 41: ANCON0=0b11111110;
   475  00F8B4  0EFE               	movlw	254
   476  00F8B6  010F               	movlb	15	; () banked
   477  00F8B8  6F48               	movwf	72,b	;volatile
   478                           
   479                           ; BSR set to: 15
   480                           ;main.c: 43: ANCON1=0b11111111;
   481  00F8BA  010F               	movlb	15	; () banked
   482  00F8BC  6949               	setf	73,b	;volatile
   483                           
   484                           ;main.c: 44: ADCON0=0b01000000;
   485  00F8BE  0E40               	movlw	64
   486  00F8C0  6EC2               	movwf	4034,c	;volatile
   487                           
   488                           ;main.c: 45: ADCON1=0b00111000;
   489  00F8C2  0E38               	movlw	56
   490  00F8C4  6EC1               	movwf	4033,c	;volatile
   491                           
   492                           ; BSR set to: 15
   493                           ;main.c: 46: RTCCFGbits.RTCEN=1;
   494  00F8C6  010F               	movlb	15	; () banked
   495  00F8C8  8F3F               	bsf	63,7,b	;volatile
   496                           
   497                           ; BSR set to: 15
   498                           ;main.c: 47: RTCCFGbits.RTCWREN=1;
   499  00F8CA  010F               	movlb	15	; () banked
   500  00F8CC  8B3F               	bsf	63,5,b	;volatile
   501                           
   502                           ; BSR set to: 15
   503                           ;main.c: 48: T1CONbits.T1OSCEN=1;
   504  00F8CE  86CD               	bsf	4045,3,c	;volatile
   505                           
   506                           ; BSR set to: 15
   507  00F8D0  0012               	return		;funcret
   508  00F8D2                     __end_of_setup:
   509                           	opt stack 0
   510                           tblptru	equ	0xFF8
   511                           status	equ	0xFD8
   512                           
   513 ;; *************** function _mostrar_fuera_rango *****************
   514 ;; Defined at:
   515 ;;		line 58 in file "Unimic/unmc_01/headers/unmc_display.c"
   516 ;; Parameters:    Size  Location     Type
   517 ;;		None
   518 ;; Auto vars:     Size  Location     Type
   519 ;;		None
   520 ;; Return value:  Size  Location     Type
   521 ;;		None               void
   522 ;; Registers used:
   523 ;;		wreg, cstack
   524 ;; Tracked objects:
   525 ;;		On entry : 0/0
   526 ;;		On exit  : 0/0
   527 ;;		Unchanged: 0/0
   528 ;; Data sizes:     COMRAM   BANK0   BANK1   BANK2   BANK3   BANK4   BANK5   BANK6   BANK7   BANK8   BANK9  BANK10  BANK1
      +1  BANK12  BANK13  BANK14
   529 ;;      Params:         0       0       0       0       0       0       0       0       0       0       0       0       
      +0       0       0       0
   530 ;;      Locals:         0       0       0       0       0       0       0       0       0       0       0       0       
      +0       0       0       0
   531 ;;      Temps:          0       0       0       0       0       0       0       0       0       0       0       0       
      +0       0       0       0
   532 ;;      Totals:         0       0       0       0       0       0       0       0       0       0       0       0       
      +0       0       0       0
   533 ;;Total ram usage:        0 bytes
   534 ;; Hardware stack levels used:    1
   535 ;; Hardware stack levels required when called:    2
   536 ;; This function calls:
   537 ;;		_encender_A
   538 ;;		_encender_B
   539 ;;		_encender_C
   540 ;;		_encender_E
   541 ;;		_encender_F
   542 ;;		_encender_G
   543 ;; This function is called by:
   544 ;;		_main
   545 ;; This function uses a non-reentrant model
   546 ;;
   547                           
   548                           	psect	text2
   549  00F830                     __ptext2:
   550                           	opt stack 0
   551  00F830                     _mostrar_fuera_rango:
   552                           	opt stack 28
   553                           
   554                           ;unmc_display.c: 59: LATBbits.LATB0 = 0;;
   555                           
   556                           ; BSR set to: 15
   557                           ;incstack = 0
   558  00F830  908A               	bcf	3978,0,c	;volatile
   559                           
   560                           ;unmc_display.c: 60: encender_A();
   561  00F832  EC60  F07B         	call	_encender_A	;wreg free
   562                           
   563                           ;unmc_display.c: 61: encender_E();
   564  00F836  EC74  F07B         	call	_encender_E	;wreg free
   565                           
   566                           ;unmc_display.c: 62: encender_F();
   567  00F83A  EC79  F07B         	call	_encender_F	;wreg free
   568                           
   569                           ;unmc_display.c: 63: encender_G();
   570  00F83E  EC83  F07B         	call	_encender_G	;wreg free
   571                           
   572                           ;unmc_display.c: 64: LATBbits.LATB0 = 1;;
   573  00F842  808A               	bsf	3978,0,c	;volatile
   574                           
   575                           ;unmc_display.c: 66: LATCbits.LATC7 = 0;;
   576  00F844  9E8B               	bcf	3979,7,c	;volatile
   577                           
   578                           ;unmc_display.c: 67: encender_A();
   579  00F846  EC60  F07B         	call	_encender_A	;wreg free
   580                           
   581                           ;unmc_display.c: 68: encender_B();
   582  00F84A  EC65  F07B         	call	_encender_B	;wreg free
   583                           
   584                           ;unmc_display.c: 69: encender_C();
   585  00F84E  EC6A  F07B         	call	_encender_C	;wreg free
   586                           
   587                           ;unmc_display.c: 70: encender_E();
   588  00F852  EC74  F07B         	call	_encender_E	;wreg free
   589                           
   590                           ;unmc_display.c: 71: encender_F();
   591  00F856  EC79  F07B         	call	_encender_F	;wreg free
   592                           
   593                           ;unmc_display.c: 72: encender_G();
   594  00F85A  EC83  F07B         	call	_encender_G	;wreg free
   595                           
   596                           ;unmc_display.c: 73: LATCbits.LATC7 = 1;;
   597  00F85E  8E8B               	bsf	3979,7,c	;volatile
   598  00F860  0012               	return		;funcret
   599  00F862                     __end_of_mostrar_fuera_rango:
   600                           	opt stack 0
   601                           tblptru	equ	0xFF8
   602                           status	equ	0xFD8
   603                           
   604 ;; *************** function _leer_temperatura *****************
   605 ;; Defined at:
   606 ;;		line 71 in file "main.c"
   607 ;; Parameters:    Size  Location     Type
   608 ;;		None
   609 ;; Auto vars:     Size  Location     Type
   610 ;;  voltage         2   59[COMRAM] int 
   611 ;; Return value:  Size  Location     Type
   612 ;;                  2   56[COMRAM] int 
   613 ;; Registers used:
   614 ;;		wreg, status,2, status,0, cstack
   615 ;; Tracked objects:
   616 ;;		On entry : 0/0
   617 ;;		On exit  : 0/0
   618 ;;		Unchanged: 0/0
   619 ;; Data sizes:     COMRAM   BANK0   BANK1   BANK2   BANK3   BANK4   BANK5   BANK6   BANK7   BANK8   BANK9  BANK10  BANK1
      +1  BANK12  BANK13  BANK14
   620 ;;      Params:         2       0       0       0       0       0       0       0       0       0       0       0       
      +0       0       0       0
   621 ;;      Locals:         2       0       0       0       0       0       0       0       0       0       0       0       
      +0       0       0       0
   622 ;;      Temps:          1       0       0       0       0       0       0       0       0       0       0       0       
      +0       0       0       0
   623 ;;      Totals:         5       0       0       0       0       0       0       0       0       0       0       0       
      +0       0       0       0
   624 ;;Total ram usage:        5 bytes
   625 ;; Hardware stack levels used:    1
   626 ;; Hardware stack levels required when called:    3
   627 ;; This function calls:
   628 ;;		_calcular_temperatura
   629 ;; This function is called by:
   630 ;;		_main
   631 ;; This function uses a non-reentrant model
   632 ;;
   633                           
   634                           	psect	text3
   635  00F862                     __ptext3:
   636                           	opt stack 0
   637  00F862                     _leer_temperatura:
   638                           	opt stack 27
   639                           
   640                           ;main.c: 72: ADCON0bits.ADON = 1;
   641                           
   642                           ;incstack = 0
   643  00F862  80C2               	bsf	4034,0,c	;volatile
   644                           
   645                           ;main.c: 73: ADCON0bits.GO = 1;
   646  00F864  82C2               	bsf	4034,1,c	;volatile
   647                           
   648                           ;main.c: 74: int voltage;
   649                           ;main.c: 76: while (ADCON0bits.GO);
   650  00F866  D000               	goto	l48
   651  00F868                     l48:
   652  00F868  B2C2               	btfsc	4034,1,c	;volatile
   653  00F86A  D7FE               	goto	l48
   654                           
   655                           ;main.c: 77: _delay((unsigned long)((1)*(8000000/4000.0)));
   656  00F86C  0E03               	movlw	3
   657  00F86E  6E3B               	movwf	??_leer_temperatura& (0+255),c
   658  00F870  0E98               	movlw	152
   659  00F872                     u1097:
   660  00F872  2EE8               	decfsz	wreg,f,c
   661  00F874  D7FE               	goto	u1097
   662  00F876  2E3B               	decfsz	??_leer_temperatura& (0+255),f,c
   663  00F878  D7FC               	goto	u1097
   664                           
   665                           ;main.c: 78: voltage = ADRESH;
   666  00F87A  CFC4 F03C          	movff	4036,leer_temperatura@voltage	;volatile
   667  00F87E  6A3D               	clrf	leer_temperatura@voltage+1,c
   668                           
   669                           ;main.c: 79: ADCON0bits.ADON = 0;
   670  00F880  90C2               	bcf	4034,0,c	;volatile
   671                           
   672                           ;main.c: 80: return calcular_temperatura(voltage);
   673  00F882  C03C  F037         	movff	leer_temperatura@voltage,calcular_temperatura@voltage
   674  00F886  C03D  F038         	movff	leer_temperatura@voltage+1,calcular_temperatura@voltage+1
   675  00F88A  EC87  F07C         	call	_calcular_temperatura	;wreg free
   676  00F88E  C037  F039         	movff	?_calcular_temperatura,?_leer_temperatura
   677  00F892  C038  F03A         	movff	?_calcular_temperatura+1,?_leer_temperatura+1
   678  00F896  0012               	return	
   679  00F898  0012               	return		;funcret
   680  00F89A                     __end_of_leer_temperatura:
   681                           	opt stack 0
   682                           tblptru	equ	0xFF8
   683                           wreg	equ	0xFE8
   684                           status	equ	0xFD8
   685                           
   686 ;; *************** function _calcular_temperatura *****************
   687 ;; Defined at:
   688 ;;		line 66 in file "main.c"
   689 ;; Parameters:    Size  Location     Type
   690 ;;  voltage         2   54[COMRAM] int 
   691 ;; Auto vars:     Size  Location     Type
   692 ;;		None
   693 ;; Return value:  Size  Location     Type
   694 ;;                  2   54[COMRAM] int 
   695 ;; Registers used:
   696 ;;		wreg, status,2, status,0, cstack
   697 ;; Tracked objects:
   698 ;;		On entry : 0/0
   699 ;;		On exit  : 0/0
   700 ;;		Unchanged: 0/0
   701 ;; Data sizes:     COMRAM   BANK0   BANK1   BANK2   BANK3   BANK4   BANK5   BANK6   BANK7   BANK8   BANK9  BANK10  BANK1
      +1  BANK12  BANK13  BANK14
   702 ;;      Params:         2       0       0       0       0       0       0       0       0       0       0       0       
      +0       0       0       0
   703 ;;      Locals:         0       0       0       0       0       0       0       0       0       0       0       0       
      +0       0       0       0
   704 ;;      Temps:          0       0       0       0       0       0       0       0       0       0       0       0       
      +0       0       0       0
   705 ;;      Totals:         2       0       0       0       0       0       0       0       0       0       0       0       
      +0       0       0       0
   706 ;;Total ram usage:        2 bytes
   707 ;; Hardware stack levels used:    1
   708 ;; Hardware stack levels required when called:    2
   709 ;; This function calls:
   710 ;;		___awtoft
   711 ;;		___ftadd
   712 ;;		___ftmul
   713 ;;		___fttol
   714 ;; This function is called by:
   715 ;;		_leer_temperatura
   716 ;; This function uses a non-reentrant model
   717 ;;
   718                           
   719                           	psect	text4
   720  00F90E                     __ptext4:
   721                           	opt stack 0
   722  00F90E                     _calcular_temperatura:
   723                           	opt stack 27
   724                           
   725                           ;main.c: 68: return (int)(0.594 * voltage - 51);
   726                           
   727                           ;incstack = 0
   728  00F90E  0E00               	movlw	0
   729  00F910  6E1F               	movwf	___ftadd@f2,c
   730  00F912  0E4C               	movlw	76
   731  00F914  6E20               	movwf	___ftadd@f2+1,c
   732  00F916  0EC2               	movlw	194
   733  00F918  6E21               	movwf	___ftadd@f2+2,c
   734  00F91A  0E10               	movlw	16
   735  00F91C  6E10               	movwf	___ftmul@f2,c
   736  00F91E  0E18               	movlw	24
   737  00F920  6E11               	movwf	___ftmul@f2+1,c
   738  00F922  0E3F               	movlw	63
   739  00F924  6E12               	movwf	___ftmul@f2+2,c
   740  00F926  C037  F009         	movff	calcular_temperatura@voltage,___awtoft@c
   741  00F92A  C038  F00A         	movff	calcular_temperatura@voltage+1,___awtoft@c+1
   742  00F92E  EC69  F07C         	call	___awtoft	;wreg free
   743  00F932  C009  F00D         	movff	?___awtoft,___ftmul@f1
   744  00F936  C00A  F00E         	movff	?___awtoft+1,___ftmul@f1+1
   745  00F93A  C00B  F00F         	movff	?___awtoft+2,___ftmul@f1+2
   746  00F93E  EC18  F07E         	call	___ftmul	;wreg free
   747  00F942  C00D  F01C         	movff	?___ftmul,___ftadd@f1
   748  00F946  C00E  F01D         	movff	?___ftmul+1,___ftadd@f1+1
   749  00F94A  C00F  F01E         	movff	?___ftmul+2,___ftadd@f1+2
   750  00F94E  EC1A  F07F         	call	___ftadd	;wreg free
   751  00F952  C01C  F028         	movff	?___ftadd,___fttol@f1
   752  00F956  C01D  F029         	movff	?___ftadd+1,___fttol@f1+1
   753  00F95A  C01E  F02A         	movff	?___ftadd+2,___fttol@f1+2
   754  00F95E  EC99  F07E         	call	___fttol	;wreg free
   755  00F962  C028  F037         	movff	?___fttol,?_calcular_temperatura
   756  00F966  C029  F038         	movff	?___fttol+1,?_calcular_temperatura+1
   757  00F96A  0012               	return	
   758  00F96C  0012               	return		;funcret
   759  00F96E                     __end_of_calcular_temperatura:
   760                           	opt stack 0
   761                           tblptru	equ	0xFF8
   762                           wreg	equ	0xFE8
   763                           status	equ	0xFD8
   764                           
   765 ;; *************** function ___fttol *****************
   766 ;; Defined at:
   767 ;;		line 44 in file "C:\Program Files (x86)\Microchip\xc8\v1.34\sources\common\fttol.c"
   768 ;; Parameters:    Size  Location     Type
   769 ;;  f1              3   39[COMRAM] float 
   770 ;; Auto vars:     Size  Location     Type
   771 ;;  lval            4   49[COMRAM] unsigned long 
   772 ;;  exp1            1   53[COMRAM] unsigned char 
   773 ;;  sign1           1   48[COMRAM] unsigned char 
   774 ;; Return value:  Size  Location     Type
   775 ;;                  4   39[COMRAM] long 
   776 ;; Registers used:
   777 ;;		wreg, status,2, status,0
   778 ;; Tracked objects:
   779 ;;		On entry : 0/0
   780 ;;		On exit  : 0/0
   781 ;;		Unchanged: 0/0
   782 ;; Data sizes:     COMRAM   BANK0   BANK1   BANK2   BANK3   BANK4   BANK5   BANK6   BANK7   BANK8   BANK9  BANK10  BANK1
      +1  BANK12  BANK13  BANK14
   783 ;;      Params:         4       0       0       0       0       0       0       0       0       0       0       0       
      +0       0       0       0
   784 ;;      Locals:         6       0       0       0       0       0       0       0       0       0       0       0       
      +0       0       0       0
   785 ;;      Temps:          5       0       0       0       0       0       0       0       0       0       0       0       
      +0       0       0       0
   786 ;;      Totals:        15       0       0       0       0       0       0       0       0       0       0       0       
      +0       0       0       0
   787 ;;Total ram usage:       15 bytes
   788 ;; Hardware stack levels used:    1
   789 ;; This function calls:
   790 ;;		Nothing
   791 ;; This function is called by:
   792 ;;		_calcular_temperatura
   793 ;; This function uses a non-reentrant model
   794 ;;
   795                           
   796                           	psect	text5
   797  00FD32                     __ptext5:
   798                           	opt stack 0
   799  00FD32                     ___fttol:
   800                           	opt stack 28
   801                           
   802                           ;incstack = 0
   803  00FD32  C02A  F02C         	movff	___fttol@f1+2,??___fttol
   804  00FD36  6A2D               	clrf	(??___fttol+1)& (0+255),c
   805  00FD38  6A2E               	clrf	(??___fttol+2)& (0+255),c
   806  00FD3A  3429               	rlcf	___fttol@f1+1,w,c
   807  00FD3C  362C               	rlcf	??___fttol& (0+255),f,c
   808  00FD3E  E301               	bnc	u911
   809  00FD40  802D               	bsf	(??___fttol+1)& (0+255),0,c
   810  00FD42                     u911:
   811  00FD42  502C               	movf	??___fttol,w,c
   812  00FD44  6E36               	movwf	___fttol@exp1,c
   813  00FD46  5036               	movf	___fttol@exp1,w,c
   814  00FD48  A4D8               	btfss	status,2,c
   815  00FD4A  D009               	goto	l1351
   816  00FD4C  0E00               	movlw	0
   817  00FD4E  6E28               	movwf	?___fttol,c
   818  00FD50  0E00               	movlw	0
   819  00FD52  6E29               	movwf	?___fttol+1,c
   820  00FD54  0E00               	movlw	0
   821  00FD56  6E2A               	movwf	?___fttol+2,c
   822  00FD58  0E00               	movlw	0
   823  00FD5A  6E2B               	movwf	?___fttol+3,c
   824  00FD5C  0012               	return	
   825  00FD5E                     l1351:
   826  00FD5E  0E17               	movlw	23
   827  00FD60  6E2C               	movwf	??___fttol& (0+255),c
   828  00FD62  C028  F02D         	movff	___fttol@f1,??___fttol+1
   829  00FD66  C029  F02E         	movff	___fttol@f1+1,??___fttol+2
   830  00FD6A  C02A  F02F         	movff	___fttol@f1+2,??___fttol+3
   831  00FD6E  282C               	incf	??___fttol,w,c
   832  00FD70  6E30               	movwf	(??___fttol+4)& (0+255),c
   833  00FD72  D004               	goto	u930
   834  00FD74                     u935:
   835  00FD74  90D8               	bcf	status,0,c
   836  00FD76  322F               	rrcf	??___fttol+3,f,c
   837  00FD78  322E               	rrcf	??___fttol+2,f,c
   838  00FD7A  322D               	rrcf	??___fttol+1,f,c
   839  00FD7C                     u930:
   840  00FD7C  2E30               	decfsz	(??___fttol+4)& (0+255),f,c
   841  00FD7E  D7FA               	goto	u935
   842  00FD80  502D               	movf	??___fttol+1,w,c
   843  00FD82  6E31               	movwf	___fttol@sign1,c
   844  00FD84  8E29               	bsf	___fttol@f1+1,7,c
   845  00FD86  0EFF               	movlw	255
   846  00FD88  1628               	andwf	___fttol@f1,f,c
   847  00FD8A  0EFF               	movlw	255
   848  00FD8C  1629               	andwf	___fttol@f1+1,f,c
   849  00FD8E  0E00               	movlw	0
   850  00FD90  162A               	andwf	___fttol@f1+2,f,c
   851  00FD92  5028               	movf	___fttol@f1,w,c
   852  00FD94  6E32               	movwf	___fttol@lval,c
   853  00FD96  5029               	movf	___fttol@f1+1,w,c
   854  00FD98  6E33               	movwf	___fttol@lval+1,c
   855  00FD9A  502A               	movf	___fttol@f1+2,w,c
   856  00FD9C  6E34               	movwf	___fttol@lval+2,c
   857  00FD9E  6A35               	clrf	___fttol@lval+3,c
   858  00FDA0  0E8E               	movlw	142
   859  00FDA2  5E36               	subwf	___fttol@exp1,f,c
   860  00FDA4  AE36               	btfss	___fttol@exp1,7,c
   861  00FDA6  D017               	goto	l1373
   862  00FDA8  5036               	movf	___fttol@exp1,w,c
   863  00FDAA  0A80               	xorlw	128
   864  00FDAC  0F8F               	addlw	143
   865  00FDAE  B0D8               	btfsc	status,0,c
   866  00FDB0  D00A               	goto	l1369
   867  00FDB2  0E00               	movlw	0
   868  00FDB4  6E28               	movwf	?___fttol,c
   869  00FDB6  0E00               	movlw	0
   870  00FDB8  6E29               	movwf	?___fttol+1,c
   871  00FDBA  0E00               	movlw	0
   872  00FDBC  6E2A               	movwf	?___fttol+2,c
   873  00FDBE  0E00               	movlw	0
   874  00FDC0  6E2B               	movwf	?___fttol+3,c
   875  00FDC2  0012               	return	
   876  00FDC4  D000               	goto	l1369
   877  00FDC6                     l1369:
   878  00FDC6  90D8               	bcf	status,0,c
   879  00FDC8  3235               	rrcf	___fttol@lval+3,f,c
   880  00FDCA  3234               	rrcf	___fttol@lval+2,f,c
   881  00FDCC  3233               	rrcf	___fttol@lval+1,f,c
   882  00FDCE  3232               	rrcf	___fttol@lval,f,c
   883  00FDD0  3E36               	incfsz	___fttol@exp1,f,c
   884  00FDD2  D7F9               	goto	l1369
   885  00FDD4  D019               	goto	l1383
   886  00FDD6                     l1373:
   887  00FDD6  0E17               	movlw	23
   888  00FDD8  6436               	cpfsgt	___fttol@exp1,c
   889  00FDDA  D011               	goto	l1381
   890  00FDDC  0E00               	movlw	0
   891  00FDDE  6E28               	movwf	?___fttol,c
   892  00FDE0  0E00               	movlw	0
   893  00FDE2  6E29               	movwf	?___fttol+1,c
   894  00FDE4  0E00               	movlw	0
   895  00FDE6  6E2A               	movwf	?___fttol+2,c
   896  00FDE8  0E00               	movlw	0
   897  00FDEA  6E2B               	movwf	?___fttol+3,c
   898  00FDEC  0012               	return	
   899  00FDEE  D007               	goto	l1381
   900  00FDF0                     l1379:
   901  00FDF0  90D8               	bcf	status,0,c
   902  00FDF2  3632               	rlcf	___fttol@lval,f,c
   903  00FDF4  3633               	rlcf	___fttol@lval+1,f,c
   904  00FDF6  3634               	rlcf	___fttol@lval+2,f,c
   905  00FDF8  3635               	rlcf	___fttol@lval+3,f,c
   906  00FDFA  0636               	decf	___fttol@exp1,f,c
   907  00FDFC  D000               	goto	l1381
   908  00FDFE                     l1381:
   909  00FDFE  5036               	movf	___fttol@exp1,w,c
   910  00FE00  B4D8               	btfsc	status,2,c
   911  00FE02  D002               	goto	l1383
   912  00FE04  D7F5               	goto	l1379
   913  00FE06  D000               	goto	l1383
   914  00FE08                     l1383:
   915  00FE08  5031               	movf	___fttol@sign1,w,c
   916  00FE0A  B4D8               	btfsc	status,2,c
   917  00FE0C  D009               	goto	l1387
   918  00FE0E  1E35               	comf	___fttol@lval+3,f,c
   919  00FE10  1E34               	comf	___fttol@lval+2,f,c
   920  00FE12  1E33               	comf	___fttol@lval+1,f,c
   921  00FE14  6C32               	negf	___fttol@lval,c
   922  00FE16  0E00               	movlw	0
   923  00FE18  2233               	addwfc	___fttol@lval+1,f,c
   924  00FE1A  2234               	addwfc	___fttol@lval+2,f,c
   925  00FE1C  2235               	addwfc	___fttol@lval+3,f,c
   926  00FE1E  D000               	goto	l1387
   927  00FE20                     l1387:
   928  00FE20  C032  F028         	movff	___fttol@lval,?___fttol
   929  00FE24  C033  F029         	movff	___fttol@lval+1,?___fttol+1
   930  00FE28  C034  F02A         	movff	___fttol@lval+2,?___fttol+2
   931  00FE2C  C035  F02B         	movff	___fttol@lval+3,?___fttol+3
   932  00FE30  0012               	return	
   933  00FE32  0012               	return		;funcret
   934  00FE34                     __end_of___fttol:
   935                           	opt stack 0
   936                           tblptru	equ	0xFF8
   937                           wreg	equ	0xFE8
   938                           status	equ	0xFD8
   939                           
   940 ;; *************** function ___ftmul *****************
   941 ;; Defined at:
   942 ;;		line 62 in file "C:\Program Files (x86)\Microchip\xc8\v1.34\sources\common\ftmul.c"
   943 ;; Parameters:    Size  Location     Type
   944 ;;  f1              3   12[COMRAM] float 
   945 ;;  f2              3   15[COMRAM] float 
   946 ;; Auto vars:     Size  Location     Type
   947 ;;  f3_as_produc    3   22[COMRAM] unsigned um
   948 ;;  sign            1   26[COMRAM] unsigned char 
   949 ;;  cntr            1   25[COMRAM] unsigned char 
   950 ;;  exp             1   21[COMRAM] unsigned char 
   951 ;; Return value:  Size  Location     Type
   952 ;;                  3   12[COMRAM] float 
   953 ;; Registers used:
   954 ;;		wreg, status,2, status,0, cstack
   955 ;; Tracked objects:
   956 ;;		On entry : 0/0
   957 ;;		On exit  : 0/0
   958 ;;		Unchanged: 0/0
   959 ;; Data sizes:     COMRAM   BANK0   BANK1   BANK2   BANK3   BANK4   BANK5   BANK6   BANK7   BANK8   BANK9  BANK10  BANK1
      +1  BANK12  BANK13  BANK14
   960 ;;      Params:         6       0       0       0       0       0       0       0       0       0       0       0       
      +0       0       0       0
   961 ;;      Locals:         6       0       0       0       0       0       0       0       0       0       0       0       
      +0       0       0       0
   962 ;;      Temps:          3       0       0       0       0       0       0       0       0       0       0       0       
      +0       0       0       0
   963 ;;      Totals:        15       0       0       0       0       0       0       0       0       0       0       0       
      +0       0       0       0
   964 ;;Total ram usage:       15 bytes
   965 ;; Hardware stack levels used:    1
   966 ;; Hardware stack levels required when called:    1
   967 ;; This function calls:
   968 ;;		___ftpack
   969 ;; This function is called by:
   970 ;;		_calcular_temperatura
   971 ;; This function uses a non-reentrant model
   972 ;;
   973                           
   974                           	psect	text6
   975  00FC30                     __ptext6:
   976                           	opt stack 0
   977  00FC30                     ___ftmul:
   978                           	opt stack 27
   979                           
   980                           ;incstack = 0
   981  00FC30  C00F  F013         	movff	___ftmul@f1+2,??___ftmul
   982  00FC34  6A14               	clrf	(??___ftmul+1)& (0+255),c
   983  00FC36  6A15               	clrf	(??___ftmul+2)& (0+255),c
   984  00FC38  340E               	rlcf	___ftmul@f1+1,w,c
   985  00FC3A  3613               	rlcf	??___ftmul& (0+255),f,c
   986  00FC3C  E301               	bnc	u841
   987  00FC3E  8014               	bsf	(??___ftmul+1)& (0+255),0,c
   988  00FC40                     u841:
   989  00FC40  5013               	movf	??___ftmul,w,c
   990  00FC42  6E16               	movwf	___ftmul@exp,c
   991  00FC44  5016               	movf	___ftmul@exp,w,c
   992  00FC46  A4D8               	btfss	status,2,c
   993  00FC48  D007               	goto	l1291
   994  00FC4A  0E00               	movlw	0
   995  00FC4C  6E0D               	movwf	?___ftmul,c
   996  00FC4E  0E00               	movlw	0
   997  00FC50  6E0E               	movwf	?___ftmul+1,c
   998  00FC52  0E00               	movlw	0
   999  00FC54  6E0F               	movwf	?___ftmul+2,c
  1000  00FC56  0012               	return	
  1001  00FC58                     l1291:
  1002  00FC58  C012  F013         	movff	___ftmul@f2+2,??___ftmul
  1003  00FC5C  6A14               	clrf	(??___ftmul+1)& (0+255),c
  1004  00FC5E  6A15               	clrf	(??___ftmul+2)& (0+255),c
  1005  00FC60  3411               	rlcf	___ftmul@f2+1,w,c
  1006  00FC62  3613               	rlcf	??___ftmul& (0+255),f,c
  1007  00FC64  E301               	bnc	u861
  1008  00FC66  8014               	bsf	(??___ftmul+1)& (0+255),0,c
  1009  00FC68                     u861:
  1010  00FC68  5013               	movf	??___ftmul,w,c
  1011  00FC6A  6E1B               	movwf	___ftmul@sign,c
  1012  00FC6C  501B               	movf	___ftmul@sign,w,c
  1013  00FC6E  A4D8               	btfss	status,2,c
  1014  00FC70  D007               	goto	l1297
  1015  00FC72  0E00               	movlw	0
  1016  00FC74  6E0D               	movwf	?___ftmul,c
  1017  00FC76  0E00               	movlw	0
  1018  00FC78  6E0E               	movwf	?___ftmul+1,c
  1019  00FC7A  0E00               	movlw	0
  1020  00FC7C  6E0F               	movwf	?___ftmul+2,c
  1021  00FC7E  0012               	return	
  1022  00FC80                     l1297:
  1023  00FC80  501B               	movf	___ftmul@sign,w,c
  1024  00FC82  0F7B               	addlw	123
  1025  00FC84  2616               	addwf	___ftmul@exp,f,c
  1026  00FC86  C00F  F01B         	movff	___ftmul@f1+2,___ftmul@sign
  1027  00FC8A  5012               	movf	___ftmul@f2+2,w,c
  1028  00FC8C  1A1B               	xorwf	___ftmul@sign,f,c
  1029  00FC8E  0E80               	movlw	128
  1030  00FC90  161B               	andwf	___ftmul@sign,f,c
  1031  00FC92  8E0E               	bsf	___ftmul@f1+1,7,c
  1032  00FC94  8E11               	bsf	___ftmul@f2+1,7,c
  1033  00FC96  0EFF               	movlw	255
  1034  00FC98  1610               	andwf	___ftmul@f2,f,c
  1035  00FC9A  0EFF               	movlw	255
  1036  00FC9C  1611               	andwf	___ftmul@f2+1,f,c
  1037  00FC9E  0E00               	movlw	0
  1038  00FCA0  1612               	andwf	___ftmul@f2+2,f,c
  1039  00FCA2  0E00               	movlw	0
  1040  00FCA4  6E17               	movwf	___ftmul@f3_as_product,c
  1041  00FCA6  0E00               	movlw	0
  1042  00FCA8  6E18               	movwf	___ftmul@f3_as_product+1,c
  1043  00FCAA  0E00               	movlw	0
  1044  00FCAC  6E19               	movwf	___ftmul@f3_as_product+2,c
  1045  00FCAE  0E07               	movlw	7
  1046  00FCB0  6E1A               	movwf	___ftmul@cntr,c
  1047  00FCB2  D000               	goto	l1311
  1048  00FCB4                     l1311:
  1049  00FCB4  A00D               	btfss	___ftmul@f1,0,c
  1050  00FCB6  D007               	goto	l1315
  1051  00FCB8  5010               	movf	___ftmul@f2,w,c
  1052  00FCBA  2617               	addwf	___ftmul@f3_as_product,f,c
  1053  00FCBC  5011               	movf	___ftmul@f2+1,w,c
  1054  00FCBE  2218               	addwfc	___ftmul@f3_as_product+1,f,c
  1055  00FCC0  5012               	movf	___ftmul@f2+2,w,c
  1056  00FCC2  2219               	addwfc	___ftmul@f3_as_product+2,f,c
  1057  00FCC4  D000               	goto	l1315
  1058  00FCC6                     l1315:
  1059  00FCC6  90D8               	bcf	status,0,c
  1060  00FCC8  320F               	rrcf	___ftmul@f1+2,f,c
  1061  00FCCA  320E               	rrcf	___ftmul@f1+1,f,c
  1062  00FCCC  320D               	rrcf	___ftmul@f1,f,c
  1063  00FCCE  90D8               	bcf	status,0,c
  1064  00FCD0  3610               	rlcf	___ftmul@f2,f,c
  1065  00FCD2  3611               	rlcf	___ftmul@f2+1,f,c
  1066  00FCD4  3612               	rlcf	___ftmul@f2+2,f,c
  1067  00FCD6  2E1A               	decfsz	___ftmul@cntr,f,c
  1068  00FCD8  D7ED               	goto	l1311
  1069  00FCDA  D000               	goto	l1319
  1070  00FCDC                     l1319:
  1071  00FCDC  0E09               	movlw	9
  1072  00FCDE  6E1A               	movwf	___ftmul@cntr,c
  1073  00FCE0  D000               	goto	l1321
  1074  00FCE2                     l1321:
  1075  00FCE2  A00D               	btfss	___ftmul@f1,0,c
  1076  00FCE4  D007               	goto	l1325
  1077  00FCE6  5010               	movf	___ftmul@f2,w,c
  1078  00FCE8  2617               	addwf	___ftmul@f3_as_product,f,c
  1079  00FCEA  5011               	movf	___ftmul@f2+1,w,c
  1080  00FCEC  2218               	addwfc	___ftmul@f3_as_product+1,f,c
  1081  00FCEE  5012               	movf	___ftmul@f2+2,w,c
  1082  00FCF0  2219               	addwfc	___ftmul@f3_as_product+2,f,c
  1083  00FCF2  D000               	goto	l1325
  1084  00FCF4                     l1325:
  1085  00FCF4  90D8               	bcf	status,0,c
  1086  00FCF6  320F               	rrcf	___ftmul@f1+2,f,c
  1087  00FCF8  320E               	rrcf	___ftmul@f1+1,f,c
  1088  00FCFA  320D               	rrcf	___ftmul@f1,f,c
  1089  00FCFC  90D8               	bcf	status,0,c
  1090  00FCFE  3219               	rrcf	___ftmul@f3_as_product+2,f,c
  1091  00FD00  3218               	rrcf	___ftmul@f3_as_product+1,f,c
  1092  00FD02  3217               	rrcf	___ftmul@f3_as_product,f,c
  1093  00FD04  2E1A               	decfsz	___ftmul@cntr,f,c
  1094  00FD06  D7ED               	goto	l1321
  1095  00FD08  D000               	goto	l1329
  1096  00FD0A                     l1329:
  1097  00FD0A  C017  F001         	movff	___ftmul@f3_as_product,___ftpack@arg
  1098  00FD0E  C018  F002         	movff	___ftmul@f3_as_product+1,___ftpack@arg+1
  1099  00FD12  C019  F003         	movff	___ftmul@f3_as_product+2,___ftpack@arg+2
  1100  00FD16  C016  F004         	movff	___ftmul@exp,___ftpack@exp
  1101  00FD1A  C01B  F005         	movff	___ftmul@sign,___ftpack@sign
  1102  00FD1E  ECB5  F07D         	call	___ftpack	;wreg free
  1103  00FD22  C001  F00D         	movff	?___ftpack,?___ftmul
  1104  00FD26  C002  F00E         	movff	?___ftpack+1,?___ftmul+1
  1105  00FD2A  C003  F00F         	movff	?___ftpack+2,?___ftmul+2
  1106  00FD2E  0012               	return	
  1107  00FD30  0012               	return		;funcret
  1108  00FD32                     __end_of___ftmul:
  1109                           	opt stack 0
  1110                           tblptru	equ	0xFF8
  1111                           wreg	equ	0xFE8
  1112                           status	equ	0xFD8
  1113                           
  1114 ;; *************** function ___ftadd *****************
  1115 ;; Defined at:
  1116 ;;		line 86 in file "C:\Program Files (x86)\Microchip\xc8\v1.34\sources\common\ftadd.c"
  1117 ;; Parameters:    Size  Location     Type
  1118 ;;  f1              3   27[COMRAM] float 
  1119 ;;  f2              3   30[COMRAM] float 
  1120 ;; Auto vars:     Size  Location     Type
  1121 ;;  exp1            1   38[COMRAM] unsigned char 
  1122 ;;  exp2            1   37[COMRAM] unsigned char 
  1123 ;;  sign            1   36[COMRAM] unsigned char 
  1124 ;; Return value:  Size  Location     Type
  1125 ;;                  3   27[COMRAM] float 
  1126 ;; Registers used:
  1127 ;;		wreg, status,2, status,0, cstack
  1128 ;; Tracked objects:
  1129 ;;		On entry : 0/0
  1130 ;;		On exit  : 0/0
  1131 ;;		Unchanged: 0/0
  1132 ;; Data sizes:     COMRAM   BANK0   BANK1   BANK2   BANK3   BANK4   BANK5   BANK6   BANK7   BANK8   BANK9  BANK10  BANK1
      +1  BANK12  BANK13  BANK14
  1133 ;;      Params:         6       0       0       0       0       0       0       0       0       0       0       0       
      +0       0       0       0
  1134 ;;      Locals:         3       0       0       0       0       0       0       0       0       0       0       0       
      +0       0       0       0
  1135 ;;      Temps:          3       0       0       0       0       0       0       0       0       0       0       0       
      +0       0       0       0
  1136 ;;      Totals:        12       0       0       0       0       0       0       0       0       0       0       0       
      +0       0       0       0
  1137 ;;Total ram usage:       12 bytes
  1138 ;; Hardware stack levels used:    1
  1139 ;; Hardware stack levels required when called:    1
  1140 ;; This function calls:
  1141 ;;		___ftpack
  1142 ;; This function is called by:
  1143 ;;		_calcular_temperatura
  1144 ;; This function uses a non-reentrant model
  1145 ;;
  1146                           
  1147                           	psect	text7
  1148  00FE34                     __ptext7:
  1149                           	opt stack 0
  1150  00FE34                     ___ftadd:
  1151                           	opt stack 27
  1152                           
  1153                           ;incstack = 0
  1154  00FE34  C01E  F022         	movff	___ftadd@f1+2,??___ftadd
  1155  00FE38  6A23               	clrf	(??___ftadd+1)& (0+255),c
  1156  00FE3A  6A24               	clrf	(??___ftadd+2)& (0+255),c
  1157  00FE3C  341D               	rlcf	___ftadd@f1+1,w,c
  1158  00FE3E  3622               	rlcf	??___ftadd& (0+255),f,c
  1159  00FE40  E301               	bnc	u631
  1160  00FE42  8023               	bsf	(??___ftadd+1)& (0+255),0,c
  1161  00FE44                     u631:
  1162  00FE44  5022               	movf	??___ftadd,w,c
  1163  00FE46  6E27               	movwf	___ftadd@exp1,c
  1164  00FE48  C021  F022         	movff	___ftadd@f2+2,??___ftadd
  1165  00FE4C  6A23               	clrf	(??___ftadd+1)& (0+255),c
  1166  00FE4E  6A24               	clrf	(??___ftadd+2)& (0+255),c
  1167  00FE50  3420               	rlcf	___ftadd@f2+1,w,c
  1168  00FE52  3622               	rlcf	??___ftadd& (0+255),f,c
  1169  00FE54  E301               	bnc	u641
  1170  00FE56  8023               	bsf	(??___ftadd+1)& (0+255),0,c
  1171  00FE58                     u641:
  1172  00FE58  5022               	movf	??___ftadd,w,c
  1173  00FE5A  6E26               	movwf	___ftadd@exp2,c
  1174  00FE5C  5027               	movf	___ftadd@exp1,w,c
  1175  00FE5E  B4D8               	btfsc	status,2,c
  1176  00FE60  D00B               	goto	l498
  1177  00FE62  5026               	movf	___ftadd@exp2,w,c
  1178  00FE64  5C27               	subwf	___ftadd@exp1,w,c
  1179  00FE66  B0D8               	btfsc	status,0,c
  1180  00FE68  D00E               	goto	l1223
  1181  00FE6A  5027               	movf	___ftadd@exp1,w,c
  1182  00FE6C  0800               	sublw	0
  1183  00FE6E  2426               	addwf	___ftadd@exp2,w,c
  1184  00FE70  6E22               	movwf	??___ftadd& (0+255),c
  1185  00FE72  0E18               	movlw	24
  1186  00FE74  6422               	cpfsgt	??___ftadd,c
  1187  00FE76  D007               	goto	l1223
  1188  00FE78                     l498:
  1189  00FE78  C01F  F01C         	movff	___ftadd@f2,?___ftadd
  1190  00FE7C  C020  F01D         	movff	___ftadd@f2+1,?___ftadd+1
  1191  00FE80  C021  F01E         	movff	___ftadd@f2+2,?___ftadd+2
  1192  00FE84  0012               	return	
  1193  00FE86                     l1223:
  1194  00FE86  5026               	movf	___ftadd@exp2,w,c
  1195  00FE88  B4D8               	btfsc	status,2,c
  1196  00FE8A  D00B               	goto	l502
  1197  00FE8C  5027               	movf	___ftadd@exp1,w,c
  1198  00FE8E  5C26               	subwf	___ftadd@exp2,w,c
  1199  00FE90  B0D8               	btfsc	status,0,c
  1200  00FE92  D00E               	goto	l1229
  1201  00FE94  5026               	movf	___ftadd@exp2,w,c
  1202  00FE96  0800               	sublw	0
  1203  00FE98  2427               	addwf	___ftadd@exp1,w,c
  1204  00FE9A  6E22               	movwf	??___ftadd& (0+255),c
  1205  00FE9C  0E18               	movlw	24
  1206  00FE9E  6422               	cpfsgt	??___ftadd,c
  1207  00FEA0  D007               	goto	l1229
  1208  00FEA2                     l502:
  1209  00FEA2  C01C  F01C         	movff	___ftadd@f1,?___ftadd
  1210  00FEA6  C01D  F01D         	movff	___ftadd@f1+1,?___ftadd+1
  1211  00FEAA  C01E  F01E         	movff	___ftadd@f1+2,?___ftadd+2
  1212  00FEAE  0012               	return	
  1213  00FEB0                     l1229:
  1214  00FEB0  0E06               	movlw	6
  1215  00FEB2  6E25               	movwf	___ftadd@sign,c
  1216  00FEB4  AE1E               	btfss	___ftadd@f1+2,7,c
  1217  00FEB6  D002               	goto	l1235
  1218  00FEB8  8E25               	bsf	___ftadd@sign,7,c
  1219  00FEBA  D000               	goto	l1235
  1220  00FEBC                     l1235:
  1221  00FEBC  BE21               	btfsc	___ftadd@f2+2,7,c
  1222  00FEBE  8C25               	bsf	___ftadd@sign,6,c
  1223  00FEC0  8E1D               	bsf	___ftadd@f1+1,7,c
  1224  00FEC2  0EFF               	movlw	255
  1225  00FEC4  161C               	andwf	___ftadd@f1,f,c
  1226  00FEC6  0EFF               	movlw	255
  1227  00FEC8  161D               	andwf	___ftadd@f1+1,f,c
  1228  00FECA  0E00               	movlw	0
  1229  00FECC  161E               	andwf	___ftadd@f1+2,f,c
  1230  00FECE  8E20               	bsf	___ftadd@f2+1,7,c
  1231  00FED0  0EFF               	movlw	255
  1232  00FED2  161F               	andwf	___ftadd@f2,f,c
  1233  00FED4  0EFF               	movlw	255
  1234  00FED6  1620               	andwf	___ftadd@f2+1,f,c
  1235  00FED8  0E00               	movlw	0
  1236  00FEDA  1621               	andwf	___ftadd@f2+2,f,c
  1237  00FEDC  5026               	movf	___ftadd@exp2,w,c
  1238  00FEDE  5C27               	subwf	___ftadd@exp1,w,c
  1239  00FEE0  B0D8               	btfsc	status,0,c
  1240  00FEE2  D01E               	goto	l1255
  1241  00FEE4                     l1245:
  1242  00FEE4  90D8               	bcf	status,0,c
  1243  00FEE6  361F               	rlcf	___ftadd@f2,f,c
  1244  00FEE8  3620               	rlcf	___ftadd@f2+1,f,c
  1245  00FEEA  3621               	rlcf	___ftadd@f2+2,f,c
  1246  00FEEC  0626               	decf	___ftadd@exp2,f,c
  1247  00FEEE  5027               	movf	___ftadd@exp1,w,c
  1248  00FEF0  1826               	xorwf	___ftadd@exp2,w,c
  1249  00FEF2  B4D8               	btfsc	status,2,c
  1250  00FEF4  D00F               	goto	l1253
  1251  00FEF6  0625               	decf	___ftadd@sign,f,c
  1252  00FEF8  C025  F022         	movff	___ftadd@sign,??___ftadd
  1253  00FEFC  0E07               	movlw	7
  1254  00FEFE  1622               	andwf	??___ftadd,f,c
  1255  00FF00  B4D8               	btfsc	status,2,c
  1256  00FF02  D008               	goto	l1253
  1257  00FF04  D7EF               	goto	l1245
  1258  00FF06  D006               	goto	l1253
  1259  00FF08                     l1251:
  1260  00FF08  90D8               	bcf	status,0,c
  1261  00FF0A  321E               	rrcf	___ftadd@f1+2,f,c
  1262  00FF0C  321D               	rrcf	___ftadd@f1+1,f,c
  1263  00FF0E  321C               	rrcf	___ftadd@f1,f,c
  1264  00FF10  2A27               	incf	___ftadd@exp1,f,c
  1265  00FF12  D000               	goto	l1253
  1266  00FF14                     l1253:
  1267  00FF14  5026               	movf	___ftadd@exp2,w,c
  1268  00FF16  1827               	xorwf	___ftadd@exp1,w,c
  1269  00FF18  B4D8               	btfsc	status,2,c
  1270  00FF1A  D024               	goto	l513
  1271  00FF1C  D7F5               	goto	l1251
  1272  00FF1E  D022               	goto	l513
  1273  00FF20                     l1255:
  1274  00FF20  5027               	movf	___ftadd@exp1,w,c
  1275  00FF22  5C26               	subwf	___ftadd@exp2,w,c
  1276  00FF24  B0D8               	btfsc	status,0,c
  1277  00FF26  D01E               	goto	l513
  1278  00FF28                     l1257:
  1279  00FF28  90D8               	bcf	status,0,c
  1280  00FF2A  361C               	rlcf	___ftadd@f1,f,c
  1281  00FF2C  361D               	rlcf	___ftadd@f1+1,f,c
  1282  00FF2E  361E               	rlcf	___ftadd@f1+2,f,c
  1283  00FF30  0627               	decf	___ftadd@exp1,f,c
  1284  00FF32  5027               	movf	___ftadd@exp1,w,c
  1285  00FF34  1826               	xorwf	___ftadd@exp2,w,c
  1286  00FF36  B4D8               	btfsc	status,2,c
  1287  00FF38  D00F               	goto	l1265
  1288  00FF3A  0625               	decf	___ftadd@sign,f,c
  1289  00FF3C  C025  F022         	movff	___ftadd@sign,??___ftadd
  1290  00FF40  0E07               	movlw	7
  1291  00FF42  1622               	andwf	??___ftadd,f,c
  1292  00FF44  B4D8               	btfsc	status,2,c
  1293  00FF46  D008               	goto	l1265
  1294  00FF48  D7EF               	goto	l1257
  1295  00FF4A  D006               	goto	l1265
  1296  00FF4C                     l1263:
  1297  00FF4C  90D8               	bcf	status,0,c
  1298  00FF4E  3221               	rrcf	___ftadd@f2+2,f,c
  1299  00FF50  3220               	rrcf	___ftadd@f2+1,f,c
  1300  00FF52  321F               	rrcf	___ftadd@f2,f,c
  1301  00FF54  2A26               	incf	___ftadd@exp2,f,c
  1302  00FF56  D000               	goto	l1265
  1303  00FF58                     l1265:
  1304  00FF58  5026               	movf	___ftadd@exp2,w,c
  1305  00FF5A  1827               	xorwf	___ftadd@exp1,w,c
  1306  00FF5C  B4D8               	btfsc	status,2,c
  1307  00FF5E  D002               	goto	l513
  1308  00FF60  D7F5               	goto	l1263
  1309  00FF62  D000               	goto	l513
  1310  00FF64                     l513:
  1311  00FF64  AE25               	btfss	___ftadd@sign,7,c
  1312  00FF66  D00C               	goto	l522
  1313  00FF68  0EFF               	movlw	255
  1314  00FF6A  1A1C               	xorwf	___ftadd@f1,f,c
  1315  00FF6C  0EFF               	movlw	255
  1316  00FF6E  1A1D               	xorwf	___ftadd@f1+1,f,c
  1317  00FF70  0EFF               	movlw	255
  1318  00FF72  1A1E               	xorwf	___ftadd@f1+2,f,c
  1319  00FF74  0E01               	movlw	1
  1320  00FF76  261C               	addwf	___ftadd@f1,f,c
  1321  00FF78  0E00               	movlw	0
  1322  00FF7A  221D               	addwfc	___ftadd@f1+1,f,c
  1323  00FF7C  0E00               	movlw	0
  1324  00FF7E  221E               	addwfc	___ftadd@f1+2,f,c
  1325  00FF80                     l522:
  1326  00FF80  AC25               	btfss	___ftadd@sign,6,c
  1327  00FF82  D00D               	goto	l1271
  1328  00FF84  0EFF               	movlw	255
  1329  00FF86  1A1F               	xorwf	___ftadd@f2,f,c
  1330  00FF88  0EFF               	movlw	255
  1331  00FF8A  1A20               	xorwf	___ftadd@f2+1,f,c
  1332  00FF8C  0EFF               	movlw	255
  1333  00FF8E  1A21               	xorwf	___ftadd@f2+2,f,c
  1334  00FF90  0E01               	movlw	1
  1335  00FF92  261F               	addwf	___ftadd@f2,f,c
  1336  00FF94  0E00               	movlw	0
  1337  00FF96  2220               	addwfc	___ftadd@f2+1,f,c
  1338  00FF98  0E00               	movlw	0
  1339  00FF9A  2221               	addwfc	___ftadd@f2+2,f,c
  1340  00FF9C  D000               	goto	l1271
  1341  00FF9E                     l1271:
  1342  00FF9E  0E00               	movlw	0
  1343  00FFA0  6E25               	movwf	___ftadd@sign,c
  1344  00FFA2  501C               	movf	___ftadd@f1,w,c
  1345  00FFA4  261F               	addwf	___ftadd@f2,f,c
  1346  00FFA6  501D               	movf	___ftadd@f1+1,w,c
  1347  00FFA8  2220               	addwfc	___ftadd@f2+1,f,c
  1348  00FFAA  501E               	movf	___ftadd@f1+2,w,c
  1349  00FFAC  2221               	addwfc	___ftadd@f2+2,f,c
  1350  00FFAE  AE21               	btfss	___ftadd@f2+2,7,c
  1351  00FFB0  D00F               	goto	l1281
  1352  00FFB2  0EFF               	movlw	255
  1353  00FFB4  1A1F               	xorwf	___ftadd@f2,f,c
  1354  00FFB6  0EFF               	movlw	255
  1355  00FFB8  1A20               	xorwf	___ftadd@f2+1,f,c
  1356  00FFBA  0EFF               	movlw	255
  1357  00FFBC  1A21               	xorwf	___ftadd@f2+2,f,c
  1358  00FFBE  0E01               	movlw	1
  1359  00FFC0  261F               	addwf	___ftadd@f2,f,c
  1360  00FFC2  0E00               	movlw	0
  1361  00FFC4  2220               	addwfc	___ftadd@f2+1,f,c
  1362  00FFC6  0E00               	movlw	0
  1363  00FFC8  2221               	addwfc	___ftadd@f2+2,f,c
  1364  00FFCA  0E01               	movlw	1
  1365  00FFCC  6E25               	movwf	___ftadd@sign,c
  1366  00FFCE  D000               	goto	l1281
  1367  00FFD0                     l1281:
  1368  00FFD0  C01F  F001         	movff	___ftadd@f2,___ftpack@arg
  1369  00FFD4  C020  F002         	movff	___ftadd@f2+1,___ftpack@arg+1
  1370  00FFD8  C021  F003         	movff	___ftadd@f2+2,___ftpack@arg+2
  1371  00FFDC  C027  F004         	movff	___ftadd@exp1,___ftpack@exp
  1372  00FFE0  C025  F005         	movff	___ftadd@sign,___ftpack@sign
  1373  00FFE4  ECB5  F07D         	call	___ftpack	;wreg free
  1374  00FFE8  C001  F01C         	movff	?___ftpack,?___ftadd
  1375  00FFEC  C002  F01D         	movff	?___ftpack+1,?___ftadd+1
  1376  00FFF0  C003  F01E         	movff	?___ftpack+2,?___ftadd+2
  1377  00FFF4  0012               	return	
  1378  00FFF6  0012               	return		;funcret
  1379  00FFF8                     __end_of___ftadd:
  1380                           	opt stack 0
  1381                           tblptru	equ	0xFF8
  1382                           wreg	equ	0xFE8
  1383                           status	equ	0xFD8
  1384                           
  1385 ;; *************** function ___awtoft *****************
  1386 ;; Defined at:
  1387 ;;		line 32 in file "C:\Program Files (x86)\Microchip\xc8\v1.34\sources\common\awtoft.c"
  1388 ;; Parameters:    Size  Location     Type
  1389 ;;  c               2    8[COMRAM] int 
  1390 ;; Auto vars:     Size  Location     Type
  1391 ;;  sign            1   11[COMRAM] unsigned char 
  1392 ;; Return value:  Size  Location     Type
  1393 ;;                  3    8[COMRAM] float 
  1394 ;; Registers used:
  1395 ;;		wreg, status,2, status,0, cstack
  1396 ;; Tracked objects:
  1397 ;;		On entry : 0/0
  1398 ;;		On exit  : 0/0
  1399 ;;		Unchanged: 0/0
  1400 ;; Data sizes:     COMRAM   BANK0   BANK1   BANK2   BANK3   BANK4   BANK5   BANK6   BANK7   BANK8   BANK9  BANK10  BANK1
      +1  BANK12  BANK13  BANK14
  1401 ;;      Params:         3       0       0       0       0       0       0       0       0       0       0       0       
      +0       0       0       0
  1402 ;;      Locals:         1       0       0       0       0       0       0       0       0       0       0       0       
      +0       0       0       0
  1403 ;;      Temps:          0       0       0       0       0       0       0       0       0       0       0       0       
      +0       0       0       0
  1404 ;;      Totals:         4       0       0       0       0       0       0       0       0       0       0       0       
      +0       0       0       0
  1405 ;;Total ram usage:        4 bytes
  1406 ;; Hardware stack levels used:    1
  1407 ;; Hardware stack levels required when called:    1
  1408 ;; This function calls:
  1409 ;;		___ftpack
  1410 ;; This function is called by:
  1411 ;;		_calcular_temperatura
  1412 ;; This function uses a non-reentrant model
  1413 ;;
  1414                           
  1415                           	psect	text8
  1416  00F8D2                     __ptext8:
  1417                           	opt stack 0
  1418  00F8D2                     ___awtoft:
  1419                           	opt stack 27
  1420                           
  1421                           ;incstack = 0
  1422  00F8D2  0E00               	movlw	0
  1423  00F8D4  6E0C               	movwf	___awtoft@sign,c
  1424  00F8D6  AE0A               	btfss	___awtoft@c+1,7,c
  1425  00F8D8  D007               	goto	l1341
  1426  00F8DA  6C09               	negf	___awtoft@c,c
  1427  00F8DC  1E0A               	comf	___awtoft@c+1,f,c
  1428  00F8DE  B0D8               	btfsc	status,0,c
  1429  00F8E0  2A0A               	incf	___awtoft@c+1,f,c
  1430  00F8E2  0E01               	movlw	1
  1431  00F8E4  6E0C               	movwf	___awtoft@sign,c
  1432  00F8E6  D000               	goto	l1341
  1433  00F8E8                     l1341:
  1434  00F8E8  C009  F001         	movff	___awtoft@c,___ftpack@arg
  1435  00F8EC  C00A  F002         	movff	___awtoft@c+1,___ftpack@arg+1
  1436  00F8F0  6A03               	clrf	___ftpack@arg+2,c
  1437  00F8F2  0E8E               	movlw	142
  1438  00F8F4  6E04               	movwf	___ftpack@exp,c
  1439  00F8F6  C00C  F005         	movff	___awtoft@sign,___ftpack@sign
  1440  00F8FA  ECB5  F07D         	call	___ftpack	;wreg free
  1441  00F8FE  C001  F009         	movff	?___ftpack,?___awtoft
  1442  00F902  C002  F00A         	movff	?___ftpack+1,?___awtoft+1
  1443  00F906  C003  F00B         	movff	?___ftpack+2,?___awtoft+2
  1444  00F90A  0012               	return	
  1445  00F90C  0012               	return		;funcret
  1446  00F90E                     __end_of___awtoft:
  1447                           	opt stack 0
  1448                           tblptru	equ	0xFF8
  1449                           wreg	equ	0xFE8
  1450                           status	equ	0xFD8
  1451                           
  1452 ;; *************** function ___ftpack *****************
  1453 ;; Defined at:
  1454 ;;		line 62 in file "C:\Program Files (x86)\Microchip\xc8\v1.34\sources\common\float.c"
  1455 ;; Parameters:    Size  Location     Type
  1456 ;;  arg             3    0[COMRAM] unsigned um
  1457 ;;  exp             1    3[COMRAM] unsigned char 
  1458 ;;  sign            1    4[COMRAM] unsigned char 
  1459 ;; Auto vars:     Size  Location     Type
  1460 ;;		None
  1461 ;; Return value:  Size  Location     Type
  1462 ;;                  3    0[COMRAM] float 
  1463 ;; Registers used:
  1464 ;;		wreg, status,2, status,0
  1465 ;; Tracked objects:
  1466 ;;		On entry : 0/0
  1467 ;;		On exit  : 0/0
  1468 ;;		Unchanged: 0/0
  1469 ;; Data sizes:     COMRAM   BANK0   BANK1   BANK2   BANK3   BANK4   BANK5   BANK6   BANK7   BANK8   BANK9  BANK10  BANK1
      +1  BANK12  BANK13  BANK14
  1470 ;;      Params:         5       0       0       0       0       0       0       0       0       0       0       0       
      +0       0       0       0
  1471 ;;      Locals:         0       0       0       0       0       0       0       0       0       0       0       0       
      +0       0       0       0
  1472 ;;      Temps:          3       0       0       0       0       0       0       0       0       0       0       0       
      +0       0       0       0
  1473 ;;      Totals:         8       0       0       0       0       0       0       0       0       0       0       0       
      +0       0       0       0
  1474 ;;Total ram usage:        8 bytes
  1475 ;; Hardware stack levels used:    1
  1476 ;; This function calls:
  1477 ;;		Nothing
  1478 ;; This function is called by:
  1479 ;;		___awtoft
  1480 ;;		___ftadd
  1481 ;;		___ftmul
  1482 ;; This function uses a non-reentrant model
  1483 ;;
  1484                           
  1485                           	psect	text9
  1486  00FB6A                     __ptext9:
  1487                           	opt stack 0
  1488  00FB6A                     ___ftpack:
  1489                           	opt stack 27
  1490                           
  1491                           ;incstack = 0
  1492  00FB6A  5004               	movf	___ftpack@exp,w,c
  1493  00FB6C  B4D8               	btfsc	status,2,c
  1494  00FB6E  D005               	goto	l1183
  1495  00FB70  5001               	movf	___ftpack@arg,w,c
  1496  00FB72  1002               	iorwf	___ftpack@arg+1,w,c
  1497  00FB74  1003               	iorwf	___ftpack@arg+2,w,c
  1498  00FB76  A4D8               	btfss	status,2,c
  1499  00FB78  D00E               	goto	l1189
  1500  00FB7A                     l1183:
  1501  00FB7A  0E00               	movlw	0
  1502  00FB7C  6E01               	movwf	?___ftpack,c
  1503  00FB7E  0E00               	movlw	0
  1504  00FB80  6E02               	movwf	?___ftpack+1,c
  1505  00FB82  0E00               	movlw	0
  1506  00FB84  6E03               	movwf	?___ftpack+2,c
  1507  00FB86  0012               	return	
  1508  00FB88  D006               	goto	l1189
  1509  00FB8A                     l1187:
  1510  00FB8A  2A04               	incf	___ftpack@exp,f,c
  1511  00FB8C  90D8               	bcf	status,0,c
  1512  00FB8E  3203               	rrcf	___ftpack@arg+2,f,c
  1513  00FB90  3202               	rrcf	___ftpack@arg+1,f,c
  1514  00FB92  3201               	rrcf	___ftpack@arg,f,c
  1515  00FB94  D000               	goto	l1189
  1516  00FB96                     l1189:
  1517  00FB96  0E00               	movlw	0
  1518  00FB98  1401               	andwf	___ftpack@arg,w,c
  1519  00FB9A  6E06               	movwf	??___ftpack& (0+255),c
  1520  00FB9C  0E00               	movlw	0
  1521  00FB9E  1402               	andwf	___ftpack@arg+1,w,c
  1522  00FBA0  6E07               	movwf	(??___ftpack+1)& (0+255),c
  1523  00FBA2  0EFE               	movlw	254
  1524  00FBA4  1403               	andwf	___ftpack@arg+2,w,c
  1525  00FBA6  6E08               	movwf	(??___ftpack+2)& (0+255),c
  1526  00FBA8  5006               	movf	??___ftpack,w,c
  1527  00FBAA  1007               	iorwf	??___ftpack+1,w,c
  1528  00FBAC  1008               	iorwf	??___ftpack+2,w,c
  1529  00FBAE  B4D8               	btfsc	status,2,c
  1530  00FBB0  D00E               	goto	l1195
  1531  00FBB2  D7EB               	goto	l1187
  1532  00FBB4  D00C               	goto	l1195
  1533  00FBB6                     l1191:
  1534  00FBB6  2A04               	incf	___ftpack@exp,f,c
  1535  00FBB8  0E01               	movlw	1
  1536  00FBBA  2601               	addwf	___ftpack@arg,f,c
  1537  00FBBC  0E00               	movlw	0
  1538  00FBBE  2202               	addwfc	___ftpack@arg+1,f,c
  1539  00FBC0  0E00               	movlw	0
  1540  00FBC2  2203               	addwfc	___ftpack@arg+2,f,c
  1541  00FBC4  90D8               	bcf	status,0,c
  1542  00FBC6  3203               	rrcf	___ftpack@arg+2,f,c
  1543  00FBC8  3202               	rrcf	___ftpack@arg+1,f,c
  1544  00FBCA  3201               	rrcf	___ftpack@arg,f,c
  1545  00FBCC  D000               	goto	l1195
  1546  00FBCE                     l1195:
  1547  00FBCE  0E00               	movlw	0
  1548  00FBD0  1401               	andwf	___ftpack@arg,w,c
  1549  00FBD2  6E06               	movwf	??___ftpack& (0+255),c
  1550  00FBD4  0E00               	movlw	0
  1551  00FBD6  1402               	andwf	___ftpack@arg+1,w,c
  1552  00FBD8  6E07               	movwf	(??___ftpack+1)& (0+255),c
  1553  00FBDA  0EFF               	movlw	255
  1554  00FBDC  1403               	andwf	___ftpack@arg+2,w,c
  1555  00FBDE  6E08               	movwf	(??___ftpack+2)& (0+255),c
  1556  00FBE0  5006               	movf	??___ftpack,w,c
  1557  00FBE2  1007               	iorwf	??___ftpack+1,w,c
  1558  00FBE4  1008               	iorwf	??___ftpack+2,w,c
  1559  00FBE6  B4D8               	btfsc	status,2,c
  1560  00FBE8  D008               	goto	l1199
  1561  00FBEA  D7E5               	goto	l1191
  1562  00FBEC  D006               	goto	l1199
  1563  00FBEE                     l1197:
  1564  00FBEE  0604               	decf	___ftpack@exp,f,c
  1565  00FBF0  90D8               	bcf	status,0,c
  1566  00FBF2  3601               	rlcf	___ftpack@arg,f,c
  1567  00FBF4  3602               	rlcf	___ftpack@arg+1,f,c
  1568  00FBF6  3603               	rlcf	___ftpack@arg+2,f,c
  1569  00FBF8  D000               	goto	l1199
  1570  00FBFA                     l1199:
  1571  00FBFA  BE02               	btfsc	___ftpack@arg+1,7,c
  1572  00FBFC  D004               	goto	l469
  1573  00FBFE  0E02               	movlw	2
  1574  00FC00  6004               	cpfslt	___ftpack@exp,c
  1575  00FC02  D7F5               	goto	l1197
  1576  00FC04  D000               	goto	l469
  1577  00FC06                     l469:
  1578  00FC06  B004               	btfsc	___ftpack@exp,0,c
  1579  00FC08  D002               	goto	l1205
  1580  00FC0A  9E02               	bcf	___ftpack@arg+1,7,c
  1581  00FC0C  D000               	goto	l1205
  1582  00FC0E                     l1205:
  1583  00FC0E  90D8               	bcf	status,0,c
  1584  00FC10  3204               	rrcf	___ftpack@exp,f,c
  1585  00FC12  5004               	movf	___ftpack@exp,w,c
  1586  00FC14  1203               	iorwf	___ftpack@arg+2,f,c
  1587  00FC16  5005               	movf	___ftpack@sign,w,c
  1588  00FC18  B4D8               	btfsc	status,2,c
  1589  00FC1A  D002               	goto	l1211
  1590  00FC1C  8E03               	bsf	___ftpack@arg+2,7,c
  1591  00FC1E  D000               	goto	l1211
  1592  00FC20                     l1211:
  1593  00FC20  C001  F001         	movff	___ftpack@arg,?___ftpack
  1594  00FC24  C002  F002         	movff	___ftpack@arg+1,?___ftpack+1
  1595  00FC28  C003  F003         	movff	___ftpack@arg+2,?___ftpack+2
  1596  00FC2C  0012               	return	
  1597  00FC2E  0012               	return		;funcret
  1598  00FC30                     __end_of___ftpack:
  1599                           	opt stack 0
  1600                           tblptru	equ	0xFF8
  1601                           wreg	equ	0xFE8
  1602                           status	equ	0xFD8
  1603                           
  1604 ;; *************** function _imprimir_temperatura *****************
  1605 ;; Defined at:
  1606 ;;		line 51 in file "main.c"
  1607 ;; Parameters:    Size  Location     Type
  1608 ;;  temp            2    8[COMRAM] int 
  1609 ;; Auto vars:     Size  Location     Type
  1610 ;;  decena          2   12[COMRAM] int 
  1611 ;;  unidad          2   10[COMRAM] int 
  1612 ;; Return value:  Size  Location     Type
  1613 ;;		None               void
  1614 ;; Registers used:
  1615 ;;		wreg, status,2, status,0, prodl, prodh, cstack
  1616 ;; Tracked objects:
  1617 ;;		On entry : 0/0
  1618 ;;		On exit  : 0/0
  1619 ;;		Unchanged: 0/0
  1620 ;; Data sizes:     COMRAM   BANK0   BANK1   BANK2   BANK3   BANK4   BANK5   BANK6   BANK7   BANK8   BANK9  BANK10  BANK1
      +1  BANK12  BANK13  BANK14
  1621 ;;      Params:         2       0       0       0       0       0       0       0       0       0       0       0       
      +0       0       0       0
  1622 ;;      Locals:         4       0       0       0       0       0       0       0       0       0       0       0       
      +0       0       0       0
  1623 ;;      Temps:          0       0       0       0       0       0       0       0       0       0       0       0       
      +0       0       0       0
  1624 ;;      Totals:         6       0       0       0       0       0       0       0       0       0       0       0       
      +0       0       0       0
  1625 ;;Total ram usage:        6 bytes
  1626 ;; Hardware stack levels used:    1
  1627 ;; Hardware stack levels required when called:    4
  1628 ;; This function calls:
  1629 ;;		___awdiv
  1630 ;;		___wmul
  1631 ;;		_construir_numero
  1632 ;; This function is called by:
  1633 ;;		_main
  1634 ;; This function uses a non-reentrant model
  1635 ;;
  1636                           
  1637                           	psect	text10
  1638  00F96E                     __ptext10:
  1639                           	opt stack 0
  1640  00F96E                     _imprimir_temperatura:
  1641                           	opt stack 26
  1642                           
  1643                           ;main.c: 53: int decena = (int)temp / 10;
  1644                           
  1645                           ;incstack = 0
  1646  00F96E  C009  F001         	movff	imprimir_temperatura@temp,___awdiv@dividend
  1647  00F972  C00A  F002         	movff	imprimir_temperatura@temp+1,___awdiv@dividend+1
  1648  00F976  0E00               	movlw	0
  1649  00F978  6E04               	movwf	___awdiv@divisor+1,c
  1650  00F97A  0E0A               	movlw	10
  1651  00F97C  6E03               	movwf	___awdiv@divisor,c
  1652  00F97E  EC6A  F07D         	call	___awdiv	;wreg free
  1653  00F982  C001  F00D         	movff	?___awdiv,imprimir_temperatura@decena
  1654  00F986  C002  F00E         	movff	?___awdiv+1,imprimir_temperatura@decena+1
  1655                           
  1656                           ;main.c: 54: int unidad = temp - (decena*10);
  1657  00F98A  C00D  F001         	movff	imprimir_temperatura@decena,___wmul@multiplier
  1658  00F98E  C00E  F002         	movff	imprimir_temperatura@decena+1,___wmul@multiplier+1
  1659  00F992  0E00               	movlw	0
  1660  00F994  6E04               	movwf	___wmul@multiplicand+1,c
  1661  00F996  0E0A               	movlw	10
  1662  00F998  6E03               	movwf	___wmul@multiplicand,c
  1663  00F99A  EC04  F07C         	call	___wmul	;wreg free
  1664  00F99E  1E01               	comf	?___wmul,f,c
  1665  00F9A0  1E02               	comf	?___wmul+1,f,c
  1666  00F9A2  4A01               	infsnz	?___wmul,f,c
  1667  00F9A4  2A02               	incf	?___wmul+1,f,c
  1668  00F9A6  5009               	movf	imprimir_temperatura@temp,w,c
  1669  00F9A8  2401               	addwf	?___wmul,w,c
  1670  00F9AA  6E0B               	movwf	imprimir_temperatura@unidad,c
  1671  00F9AC  500A               	movf	imprimir_temperatura@temp+1,w,c
  1672  00F9AE  2002               	addwfc	?___wmul+1,w,c
  1673  00F9B0  6E0C               	movwf	imprimir_temperatura@unidad+1,c
  1674                           
  1675                           ;main.c: 56: LATBbits.LATB0 = 0;;
  1676  00F9B2  908A               	bcf	3978,0,c	;volatile
  1677                           
  1678                           ;main.c: 57: construir_numero(decena);
  1679  00F9B4  C00D  F002         	movff	imprimir_temperatura@decena,construir_numero@number
  1680  00F9B8  C00E  F003         	movff	imprimir_temperatura@decena+1,construir_numero@number+1
  1681  00F9BC  EC20  F07D         	call	_construir_numero	;wreg free
  1682                           
  1683                           ;main.c: 58: LATBbits.LATB0 = 1;;
  1684  00F9C0  808A               	bsf	3978,0,c	;volatile
  1685                           
  1686                           ;main.c: 60: LATCbits.LATC7 = 0;;
  1687  00F9C2  9E8B               	bcf	3979,7,c	;volatile
  1688                           
  1689                           ;main.c: 61: construir_numero(unidad);
  1690  00F9C4  C00B  F002         	movff	imprimir_temperatura@unidad,construir_numero@number
  1691  00F9C8  C00C  F003         	movff	imprimir_temperatura@unidad+1,construir_numero@number+1
  1692  00F9CC  EC20  F07D         	call	_construir_numero	;wreg free
  1693                           
  1694                           ;main.c: 62: LATCbits.LATC7 = 1;;
  1695  00F9D0  8E8B               	bsf	3979,7,c	;volatile
  1696  00F9D2  0012               	return		;funcret
  1697  00F9D4                     __end_of_imprimir_temperatura:
  1698                           	opt stack 0
  1699                           tblptru	equ	0xFF8
  1700                           wreg	equ	0xFE8
  1701                           status	equ	0xFD8
  1702                           
  1703 ;; *************** function _construir_numero *****************
  1704 ;; Defined at:
  1705 ;;		line 155 in file "Unimic/unmc_01/headers/unmc_display.c"
  1706 ;; Parameters:    Size  Location     Type
  1707 ;;  number          2    1[COMRAM] int 
  1708 ;; Auto vars:     Size  Location     Type
  1709 ;;		None
  1710 ;; Return value:  Size  Location     Type
  1711 ;;		None               void
  1712 ;; Registers used:
  1713 ;;		wreg, status,2, status,0, cstack
  1714 ;; Tracked objects:
  1715 ;;		On entry : 0/0
  1716 ;;		On exit  : 0/0
  1717 ;;		Unchanged: 0/0
  1718 ;; Data sizes:     COMRAM   BANK0   BANK1   BANK2   BANK3   BANK4   BANK5   BANK6   BANK7   BANK8   BANK9  BANK10  BANK1
      +1  BANK12  BANK13  BANK14
  1719 ;;      Params:         2       0       0       0       0       0       0       0       0       0       0       0       
      +0       0       0       0
  1720 ;;      Locals:         0       0       0       0       0       0       0       0       0       0       0       0       
      +0       0       0       0
  1721 ;;      Temps:          2       0       0       0       0       0       0       0       0       0       0       0       
      +0       0       0       0
  1722 ;;      Totals:         4       0       0       0       0       0       0       0       0       0       0       0       
      +0       0       0       0
  1723 ;;Total ram usage:        4 bytes
  1724 ;; Hardware stack levels used:    1
  1725 ;; Hardware stack levels required when called:    3
  1726 ;; This function calls:
  1727 ;;		_apagar_segmentos
  1728 ;;		_number_0
  1729 ;;		_number_1
  1730 ;;		_number_2
  1731 ;;		_number_3
  1732 ;;		_number_4
  1733 ;;		_number_5
  1734 ;;		_number_6
  1735 ;;		_number_7
  1736 ;;		_number_8
  1737 ;;		_number_9
  1738 ;; This function is called by:
  1739 ;;		_imprimir_temperatura
  1740 ;; This function uses a non-reentrant model
  1741 ;;
  1742                           
  1743                           	psect	text11
  1744  00FA40                     __ptext11:
  1745                           	opt stack 0
  1746  00FA40                     _construir_numero:
  1747                           	opt stack 26
  1748                           
  1749                           ;unmc_display.c: 156: apagar_segmentos();
  1750                           
  1751                           ;incstack = 0
  1752  00FA40  EC94  F07B         	call	_apagar_segmentos	;wreg free
  1753                           
  1754                           ;unmc_display.c: 157: switch(number){
  1755  00FA44  D01E               	goto	l1415
  1756  00FA46                     l1393:
  1757                           
  1758                           ;unmc_display.c: 159: number_0();
  1759  00FA46  ECCE  F07B         	call	_number_0	;wreg free
  1760                           
  1761                           ;unmc_display.c: 160: break;
  1762  00FA4A  0012               	return	
  1763  00FA4C                     l1395:
  1764                           
  1765                           ;unmc_display.c: 162: number_1();
  1766  00FA4C  EC7E  F07B         	call	_number_1	;wreg free
  1767                           
  1768                           ;unmc_display.c: 163: break;
  1769  00FA50  0012               	return	
  1770  00FA52                     l1397:
  1771                           
  1772                           ;unmc_display.c: 165: number_2();
  1773  00FA52  ECAD  F07B         	call	_number_2	;wreg free
  1774                           
  1775                           ;unmc_display.c: 166: break;
  1776  00FA56  0012               	return	
  1777  00FA58                     l1399:
  1778                           
  1779                           ;unmc_display.c: 168: number_3();
  1780  00FA58  ECB8  F07B         	call	_number_3	;wreg free
  1781                           
  1782                           ;unmc_display.c: 169: break;
  1783  00FA5C  0012               	return	
  1784  00FA5E                     l1401:
  1785                           
  1786                           ;unmc_display.c: 171: number_4();
  1787  00FA5E  ECA4  F07B         	call	_number_4	;wreg free
  1788                           
  1789                           ;unmc_display.c: 172: break;
  1790  00FA62  0012               	return	
  1791  00FA64                     l1403:
  1792                           
  1793                           ;unmc_display.c: 174: number_5();
  1794  00FA64  ECC3  F07B         	call	_number_5	;wreg free
  1795                           
  1796                           ;unmc_display.c: 175: break;
  1797  00FA68  0012               	return	
  1798  00FA6A                     l1405:
  1799                           
  1800                           ;unmc_display.c: 177: number_6();
  1801  00FA6A  ECDB  F07B         	call	_number_6	;wreg free
  1802                           
  1803                           ;unmc_display.c: 178: break;
  1804  00FA6E  0012               	return	
  1805  00FA70                     l1407:
  1806                           
  1807                           ;unmc_display.c: 180: number_7();
  1808  00FA70  EC8D  F07B         	call	_number_7	;wreg free
  1809                           
  1810                           ;unmc_display.c: 181: break;
  1811  00FA74  0012               	return	
  1812  00FA76                     l1409:
  1813                           
  1814                           ;unmc_display.c: 183: number_8();
  1815  00FA76  ECF5  F07B         	call	_number_8	;wreg free
  1816                           
  1817                           ;unmc_display.c: 184: break;
  1818  00FA7A  0012               	return	
  1819  00FA7C                     l1411:
  1820                           
  1821                           ;unmc_display.c: 186: number_9();
  1822  00FA7C  ECE8  F07B         	call	_number_9	;wreg free
  1823                           
  1824                           ;unmc_display.c: 188: }
  1825                           
  1826                           ;unmc_display.c: 187: break;
  1827  00FA80  0012               	return	
  1828  00FA82                     l1415:
  1829  00FA82  C002  F004         	movff	construir_numero@number,??_construir_numero
  1830  00FA86  C003  F005         	movff	construir_numero@number+1,??_construir_numero+1
  1831                           
  1832                           ; Switch on 2 bytes has been partitioned into a top level switch of size 1, and 1 sub-sw
      +                          itches
  1833                           ; Switch size 1, requested type "space"
  1834                           ; Number of cases is 1, Range of values is 0 to 0
  1835                           ; switch strategies available:
  1836                           ; Name         Instructions Cycles
  1837                           ; simple_byte            4     3 (average)
  1838                           ;	Chosen strategy is simple_byte
  1839  00FA8A  5005               	movf	??_construir_numero+1,w,c
  1840  00FA8C  0A00               	xorlw	0	; case 0
  1841  00FA8E  A4D8               	btfss	status,2,c
  1842  00FA90  0012               	return	
  1843                           
  1844                           ; Switch size 1, requested type "space"
  1845                           ; Number of cases is 10, Range of values is 0 to 9
  1846                           ; switch strategies available:
  1847                           ; Name         Instructions Cycles
  1848                           ; simple_byte           31    16 (average)
  1849                           ;	Chosen strategy is simple_byte
  1850  00FA92  5004               	movf	??_construir_numero,w,c
  1851  00FA94  0A00               	xorlw	0	; case 0
  1852  00FA96  B4D8               	btfsc	status,2,c
  1853  00FA98  D7D6               	goto	l1393
  1854  00FA9A  0A01               	xorlw	1	; case 1
  1855  00FA9C  B4D8               	btfsc	status,2,c
  1856  00FA9E  D7D6               	goto	l1395
  1857  00FAA0  0A03               	xorlw	3	; case 2
  1858  00FAA2  B4D8               	btfsc	status,2,c
  1859  00FAA4  D7D6               	goto	l1397
  1860  00FAA6  0A01               	xorlw	1	; case 3
  1861  00FAA8  B4D8               	btfsc	status,2,c
  1862  00FAAA  D7D6               	goto	l1399
  1863  00FAAC  0A07               	xorlw	7	; case 4
  1864  00FAAE  B4D8               	btfsc	status,2,c
  1865  00FAB0  D7D6               	goto	l1401
  1866  00FAB2  0A01               	xorlw	1	; case 5
  1867  00FAB4  B4D8               	btfsc	status,2,c
  1868  00FAB6  D7D6               	goto	l1403
  1869  00FAB8  0A03               	xorlw	3	; case 6
  1870  00FABA  B4D8               	btfsc	status,2,c
  1871  00FABC  D7D6               	goto	l1405
  1872  00FABE  0A01               	xorlw	1	; case 7
  1873  00FAC0  B4D8               	btfsc	status,2,c
  1874  00FAC2  D7D6               	goto	l1407
  1875  00FAC4  0A0F               	xorlw	15	; case 8
  1876  00FAC6  B4D8               	btfsc	status,2,c
  1877  00FAC8  D7D6               	goto	l1409
  1878  00FACA  0A01               	xorlw	1	; case 9
  1879  00FACC  A4D8               	btfss	status,2,c
  1880  00FACE  0012               	return	
  1881  00FAD0  D7D5               	goto	l1411
  1882  00FAD2  0012               	return		;funcret
  1883  00FAD4                     __end_of_construir_numero:
  1884                           	opt stack 0
  1885                           tblptru	equ	0xFF8
  1886                           wreg	equ	0xFE8
  1887                           status	equ	0xFD8
  1888                           
  1889 ;; *************** function _number_9 *****************
  1890 ;; Defined at:
  1891 ;;		line 146 in file "Unimic/unmc_01/headers/unmc_display.c"
  1892 ;; Parameters:    Size  Location     Type
  1893 ;;		None
  1894 ;; Auto vars:     Size  Location     Type
  1895 ;;		None
  1896 ;; Return value:  Size  Location     Type
  1897 ;;		None               void
  1898 ;; Registers used:
  1899 ;;		wreg, cstack
  1900 ;; Tracked objects:
  1901 ;;		On entry : 0/0
  1902 ;;		On exit  : 0/0
  1903 ;;		Unchanged: 0/0
  1904 ;; Data sizes:     COMRAM   BANK0   BANK1   BANK2   BANK3   BANK4   BANK5   BANK6   BANK7   BANK8   BANK9  BANK10  BANK1
      +1  BANK12  BANK13  BANK14
  1905 ;;      Params:         0       0       0       0       0       0       0       0       0       0       0       0       
      +0       0       0       0
  1906 ;;      Locals:         0       0       0       0       0       0       0       0       0       0       0       0       
      +0       0       0       0
  1907 ;;      Temps:          0       0       0       0       0       0       0       0       0       0       0       0       
      +0       0       0       0
  1908 ;;      Totals:         0       0       0       0       0       0       0       0       0       0       0       0       
      +0       0       0       0
  1909 ;;Total ram usage:        0 bytes
  1910 ;; Hardware stack levels used:    1
  1911 ;; Hardware stack levels required when called:    2
  1912 ;; This function calls:
  1913 ;;		_encender_A
  1914 ;;		_encender_B
  1915 ;;		_encender_C
  1916 ;;		_encender_D
  1917 ;;		_encender_F
  1918 ;;		_encender_G
  1919 ;; This function is called by:
  1920 ;;		_construir_numero
  1921 ;; This function uses a non-reentrant model
  1922 ;;
  1923                           
  1924                           	psect	text12
  1925  00F7D0                     __ptext12:
  1926                           	opt stack 0
  1927  00F7D0                     _number_9:
  1928                           	opt stack 26
  1929                           
  1930                           ;unmc_display.c: 147: encender_A();
  1931                           
  1932                           ;incstack = 0
  1933  00F7D0  EC60  F07B         	call	_encender_A	;wreg free
  1934                           
  1935                           ;unmc_display.c: 148: encender_B();
  1936  00F7D4  EC65  F07B         	call	_encender_B	;wreg free
  1937                           
  1938                           ;unmc_display.c: 149: encender_C();
  1939  00F7D8  EC6A  F07B         	call	_encender_C	;wreg free
  1940                           
  1941                           ;unmc_display.c: 150: encender_D();
  1942  00F7DC  EC6F  F07B         	call	_encender_D	;wreg free
  1943                           
  1944                           ;unmc_display.c: 151: encender_F();
  1945  00F7E0  EC79  F07B         	call	_encender_F	;wreg free
  1946                           
  1947                           ;unmc_display.c: 152: encender_G();
  1948  00F7E4  EC83  F07B         	call	_encender_G	;wreg free
  1949  00F7E8  0012               	return		;funcret
  1950  00F7EA                     __end_of_number_9:
  1951                           	opt stack 0
  1952                           tblptru	equ	0xFF8
  1953                           wreg	equ	0xFE8
  1954                           status	equ	0xFD8
  1955                           
  1956 ;; *************** function _number_8 *****************
  1957 ;; Defined at:
  1958 ;;		line 136 in file "Unimic/unmc_01/headers/unmc_display.c"
  1959 ;; Parameters:    Size  Location     Type
  1960 ;;		None
  1961 ;; Auto vars:     Size  Location     Type
  1962 ;;		None
  1963 ;; Return value:  Size  Location     Type
  1964 ;;		None               void
  1965 ;; Registers used:
  1966 ;;		wreg, cstack
  1967 ;; Tracked objects:
  1968 ;;		On entry : 0/0
  1969 ;;		On exit  : 0/0
  1970 ;;		Unchanged: 0/0
  1971 ;; Data sizes:     COMRAM   BANK0   BANK1   BANK2   BANK3   BANK4   BANK5   BANK6   BANK7   BANK8   BANK9  BANK10  BANK1
      +1  BANK12  BANK13  BANK14
  1972 ;;      Params:         0       0       0       0       0       0       0       0       0       0       0       0       
      +0       0       0       0
  1973 ;;      Locals:         0       0       0       0       0       0       0       0       0       0       0       0       
      +0       0       0       0
  1974 ;;      Temps:          0       0       0       0       0       0       0       0       0       0       0       0       
      +0       0       0       0
  1975 ;;      Totals:         0       0       0       0       0       0       0       0       0       0       0       0       
      +0       0       0       0
  1976 ;;Total ram usage:        0 bytes
  1977 ;; Hardware stack levels used:    1
  1978 ;; Hardware stack levels required when called:    2
  1979 ;; This function calls:
  1980 ;;		_encender_A
  1981 ;;		_encender_B
  1982 ;;		_encender_C
  1983 ;;		_encender_D
  1984 ;;		_encender_E
  1985 ;;		_encender_F
  1986 ;;		_encender_G
  1987 ;; This function is called by:
  1988 ;;		_construir_numero
  1989 ;; This function uses a non-reentrant model
  1990 ;;
  1991                           
  1992                           	psect	text13
  1993  00F7EA                     __ptext13:
  1994                           	opt stack 0
  1995  00F7EA                     _number_8:
  1996                           	opt stack 26
  1997                           
  1998                           ;unmc_display.c: 137: encender_A();
  1999                           
  2000                           ;incstack = 0
  2001  00F7EA  EC60  F07B         	call	_encender_A	;wreg free
  2002                           
  2003                           ;unmc_display.c: 138: encender_B();
  2004  00F7EE  EC65  F07B         	call	_encender_B	;wreg free
  2005                           
  2006                           ;unmc_display.c: 139: encender_C();
  2007  00F7F2  EC6A  F07B         	call	_encender_C	;wreg free
  2008                           
  2009                           ;unmc_display.c: 140: encender_D();
  2010  00F7F6  EC6F  F07B         	call	_encender_D	;wreg free
  2011                           
  2012                           ;unmc_display.c: 141: encender_E();
  2013  00F7FA  EC74  F07B         	call	_encender_E	;wreg free
  2014                           
  2015                           ;unmc_display.c: 142: encender_F();
  2016  00F7FE  EC79  F07B         	call	_encender_F	;wreg free
  2017                           
  2018                           ;unmc_display.c: 143: encender_G();
  2019  00F802  EC83  F07B         	call	_encender_G	;wreg free
  2020  00F806  0012               	return		;funcret
  2021  00F808                     __end_of_number_8:
  2022                           	opt stack 0
  2023                           tblptru	equ	0xFF8
  2024                           wreg	equ	0xFE8
  2025                           status	equ	0xFD8
  2026                           
  2027 ;; *************** function _number_7 *****************
  2028 ;; Defined at:
  2029 ;;		line 130 in file "Unimic/unmc_01/headers/unmc_display.c"
  2030 ;; Parameters:    Size  Location     Type
  2031 ;;		None
  2032 ;; Auto vars:     Size  Location     Type
  2033 ;;		None
  2034 ;; Return value:  Size  Location     Type
  2035 ;;		None               void
  2036 ;; Registers used:
  2037 ;;		wreg, cstack
  2038 ;; Tracked objects:
  2039 ;;		On entry : 0/0
  2040 ;;		On exit  : 0/0
  2041 ;;		Unchanged: 0/0
  2042 ;; Data sizes:     COMRAM   BANK0   BANK1   BANK2   BANK3   BANK4   BANK5   BANK6   BANK7   BANK8   BANK9  BANK10  BANK1
      +1  BANK12  BANK13  BANK14
  2043 ;;      Params:         0       0       0       0       0       0       0       0       0       0       0       0       
      +0       0       0       0
  2044 ;;      Locals:         0       0       0       0       0       0       0       0       0       0       0       0       
      +0       0       0       0
  2045 ;;      Temps:          0       0       0       0       0       0       0       0       0       0       0       0       
      +0       0       0       0
  2046 ;;      Totals:         0       0       0       0       0       0       0       0       0       0       0       0       
      +0       0       0       0
  2047 ;;Total ram usage:        0 bytes
  2048 ;; Hardware stack levels used:    1
  2049 ;; Hardware stack levels required when called:    2
  2050 ;; This function calls:
  2051 ;;		_encender_A
  2052 ;;		_encender_B
  2053 ;;		_encender_C
  2054 ;; This function is called by:
  2055 ;;		_construir_numero
  2056 ;; This function uses a non-reentrant model
  2057 ;;
  2058                           
  2059                           	psect	text14
  2060  00F71A                     __ptext14:
  2061                           	opt stack 0
  2062  00F71A                     _number_7:
  2063                           	opt stack 26
  2064                           
  2065                           ;unmc_display.c: 131: encender_A();
  2066                           
  2067                           ;incstack = 0
  2068  00F71A  EC60  F07B         	call	_encender_A	;wreg free
  2069                           
  2070                           ;unmc_display.c: 132: encender_B();
  2071  00F71E  EC65  F07B         	call	_encender_B	;wreg free
  2072                           
  2073                           ;unmc_display.c: 133: encender_C();
  2074  00F722  EC6A  F07B         	call	_encender_C	;wreg free
  2075  00F726  0012               	return		;funcret
  2076  00F728                     __end_of_number_7:
  2077                           	opt stack 0
  2078                           tblptru	equ	0xFF8
  2079                           wreg	equ	0xFE8
  2080                           status	equ	0xFD8
  2081                           
  2082 ;; *************** function _number_6 *****************
  2083 ;; Defined at:
  2084 ;;		line 121 in file "Unimic/unmc_01/headers/unmc_display.c"
  2085 ;; Parameters:    Size  Location     Type
  2086 ;;		None
  2087 ;; Auto vars:     Size  Location     Type
  2088 ;;		None
  2089 ;; Return value:  Size  Location     Type
  2090 ;;		None               void
  2091 ;; Registers used:
  2092 ;;		wreg, cstack
  2093 ;; Tracked objects:
  2094 ;;		On entry : 0/0
  2095 ;;		On exit  : 0/0
  2096 ;;		Unchanged: 0/0
  2097 ;; Data sizes:     COMRAM   BANK0   BANK1   BANK2   BANK3   BANK4   BANK5   BANK6   BANK7   BANK8   BANK9  BANK10  BANK1
      +1  BANK12  BANK13  BANK14
  2098 ;;      Params:         0       0       0       0       0       0       0       0       0       0       0       0       
      +0       0       0       0
  2099 ;;      Locals:         0       0       0       0       0       0       0       0       0       0       0       0       
      +0       0       0       0
  2100 ;;      Temps:          0       0       0       0       0       0       0       0       0       0       0       0       
      +0       0       0       0
  2101 ;;      Totals:         0       0       0       0       0       0       0       0       0       0       0       0       
      +0       0       0       0
  2102 ;;Total ram usage:        0 bytes
  2103 ;; Hardware stack levels used:    1
  2104 ;; Hardware stack levels required when called:    2
  2105 ;; This function calls:
  2106 ;;		_encender_A
  2107 ;;		_encender_C
  2108 ;;		_encender_D
  2109 ;;		_encender_E
  2110 ;;		_encender_F
  2111 ;;		_encender_G
  2112 ;; This function is called by:
  2113 ;;		_construir_numero
  2114 ;; This function uses a non-reentrant model
  2115 ;;
  2116                           
  2117                           	psect	text15
  2118  00F7B6                     __ptext15:
  2119                           	opt stack 0
  2120  00F7B6                     _number_6:
  2121                           	opt stack 26
  2122                           
  2123                           ;unmc_display.c: 122: encender_A();
  2124                           
  2125                           ;incstack = 0
  2126  00F7B6  EC60  F07B         	call	_encender_A	;wreg free
  2127                           
  2128                           ;unmc_display.c: 123: encender_C();
  2129  00F7BA  EC6A  F07B         	call	_encender_C	;wreg free
  2130                           
  2131                           ;unmc_display.c: 124: encender_D();
  2132  00F7BE  EC6F  F07B         	call	_encender_D	;wreg free
  2133                           
  2134                           ;unmc_display.c: 125: encender_E();
  2135  00F7C2  EC74  F07B         	call	_encender_E	;wreg free
  2136                           
  2137                           ;unmc_display.c: 126: encender_F();
  2138  00F7C6  EC79  F07B         	call	_encender_F	;wreg free
  2139                           
  2140                           ;unmc_display.c: 127: encender_G();
  2141  00F7CA  EC83  F07B         	call	_encender_G	;wreg free
  2142  00F7CE  0012               	return		;funcret
  2143  00F7D0                     __end_of_number_6:
  2144                           	opt stack 0
  2145                           tblptru	equ	0xFF8
  2146                           wreg	equ	0xFE8
  2147                           status	equ	0xFD8
  2148                           
  2149 ;; *************** function _number_5 *****************
  2150 ;; Defined at:
  2151 ;;		line 113 in file "Unimic/unmc_01/headers/unmc_display.c"
  2152 ;; Parameters:    Size  Location     Type
  2153 ;;		None
  2154 ;; Auto vars:     Size  Location     Type
  2155 ;;		None
  2156 ;; Return value:  Size  Location     Type
  2157 ;;		None               void
  2158 ;; Registers used:
  2159 ;;		wreg, cstack
  2160 ;; Tracked objects:
  2161 ;;		On entry : 0/0
  2162 ;;		On exit  : 0/0
  2163 ;;		Unchanged: 0/0
  2164 ;; Data sizes:     COMRAM   BANK0   BANK1   BANK2   BANK3   BANK4   BANK5   BANK6   BANK7   BANK8   BANK9  BANK10  BANK1
      +1  BANK12  BANK13  BANK14
  2165 ;;      Params:         0       0       0       0       0       0       0       0       0       0       0       0       
      +0       0       0       0
  2166 ;;      Locals:         0       0       0       0       0       0       0       0       0       0       0       0       
      +0       0       0       0
  2167 ;;      Temps:          0       0       0       0       0       0       0       0       0       0       0       0       
      +0       0       0       0
  2168 ;;      Totals:         0       0       0       0       0       0       0       0       0       0       0       0       
      +0       0       0       0
  2169 ;;Total ram usage:        0 bytes
  2170 ;; Hardware stack levels used:    1
  2171 ;; Hardware stack levels required when called:    2
  2172 ;; This function calls:
  2173 ;;		_encender_A
  2174 ;;		_encender_C
  2175 ;;		_encender_D
  2176 ;;		_encender_F
  2177 ;;		_encender_G
  2178 ;; This function is called by:
  2179 ;;		_construir_numero
  2180 ;; This function uses a non-reentrant model
  2181 ;;
  2182                           
  2183                           	psect	text16
  2184  00F786                     __ptext16:
  2185                           	opt stack 0
  2186  00F786                     _number_5:
  2187                           	opt stack 26
  2188                           
  2189                           ;unmc_display.c: 114: encender_A();
  2190                           
  2191                           ;incstack = 0
  2192  00F786  EC60  F07B         	call	_encender_A	;wreg free
  2193                           
  2194                           ;unmc_display.c: 115: encender_C();
  2195  00F78A  EC6A  F07B         	call	_encender_C	;wreg free
  2196                           
  2197                           ;unmc_display.c: 116: encender_D();
  2198  00F78E  EC6F  F07B         	call	_encender_D	;wreg free
  2199                           
  2200                           ;unmc_display.c: 117: encender_F();
  2201  00F792  EC79  F07B         	call	_encender_F	;wreg free
  2202                           
  2203                           ;unmc_display.c: 118: encender_G();
  2204  00F796  EC83  F07B         	call	_encender_G	;wreg free
  2205  00F79A  0012               	return		;funcret
  2206  00F79C                     __end_of_number_5:
  2207                           	opt stack 0
  2208                           tblptru	equ	0xFF8
  2209                           wreg	equ	0xFE8
  2210                           status	equ	0xFD8
  2211                           
  2212 ;; *************** function _number_4 *****************
  2213 ;; Defined at:
  2214 ;;		line 106 in file "Unimic/unmc_01/headers/unmc_display.c"
  2215 ;; Parameters:    Size  Location     Type
  2216 ;;		None
  2217 ;; Auto vars:     Size  Location     Type
  2218 ;;		None
  2219 ;; Return value:  Size  Location     Type
  2220 ;;		None               void
  2221 ;; Registers used:
  2222 ;;		wreg, cstack
  2223 ;; Tracked objects:
  2224 ;;		On entry : 0/0
  2225 ;;		On exit  : 0/0
  2226 ;;		Unchanged: 0/0
  2227 ;; Data sizes:     COMRAM   BANK0   BANK1   BANK2   BANK3   BANK4   BANK5   BANK6   BANK7   BANK8   BANK9  BANK10  BANK1
      +1  BANK12  BANK13  BANK14
  2228 ;;      Params:         0       0       0       0       0       0       0       0       0       0       0       0       
      +0       0       0       0
  2229 ;;      Locals:         0       0       0       0       0       0       0       0       0       0       0       0       
      +0       0       0       0
  2230 ;;      Temps:          0       0       0       0       0       0       0       0       0       0       0       0       
      +0       0       0       0
  2231 ;;      Totals:         0       0       0       0       0       0       0       0       0       0       0       0       
      +0       0       0       0
  2232 ;;Total ram usage:        0 bytes
  2233 ;; Hardware stack levels used:    1
  2234 ;; Hardware stack levels required when called:    2
  2235 ;; This function calls:
  2236 ;;		_encender_B
  2237 ;;		_encender_C
  2238 ;;		_encender_F
  2239 ;;		_encender_G
  2240 ;; This function is called by:
  2241 ;;		_construir_numero
  2242 ;; This function uses a non-reentrant model
  2243 ;;
  2244                           
  2245                           	psect	text17
  2246  00F748                     __ptext17:
  2247                           	opt stack 0
  2248  00F748                     _number_4:
  2249                           	opt stack 26
  2250                           
  2251                           ;unmc_display.c: 107: encender_B();
  2252                           
  2253                           ;incstack = 0
  2254  00F748  EC65  F07B         	call	_encender_B	;wreg free
  2255                           
  2256                           ;unmc_display.c: 108: encender_C();
  2257  00F74C  EC6A  F07B         	call	_encender_C	;wreg free
  2258                           
  2259                           ;unmc_display.c: 109: encender_F();
  2260  00F750  EC79  F07B         	call	_encender_F	;wreg free
  2261                           
  2262                           ;unmc_display.c: 110: encender_G();
  2263  00F754  EC83  F07B         	call	_encender_G	;wreg free
  2264  00F758  0012               	return		;funcret
  2265  00F75A                     __end_of_number_4:
  2266                           	opt stack 0
  2267                           tblptru	equ	0xFF8
  2268                           wreg	equ	0xFE8
  2269                           status	equ	0xFD8
  2270                           
  2271 ;; *************** function _number_3 *****************
  2272 ;; Defined at:
  2273 ;;		line 98 in file "Unimic/unmc_01/headers/unmc_display.c"
  2274 ;; Parameters:    Size  Location     Type
  2275 ;;		None
  2276 ;; Auto vars:     Size  Location     Type
  2277 ;;		None
  2278 ;; Return value:  Size  Location     Type
  2279 ;;		None               void
  2280 ;; Registers used:
  2281 ;;		wreg, cstack
  2282 ;; Tracked objects:
  2283 ;;		On entry : 0/0
  2284 ;;		On exit  : 0/0
  2285 ;;		Unchanged: 0/0
  2286 ;; Data sizes:     COMRAM   BANK0   BANK1   BANK2   BANK3   BANK4   BANK5   BANK6   BANK7   BANK8   BANK9  BANK10  BANK1
      +1  BANK12  BANK13  BANK14
  2287 ;;      Params:         0       0       0       0       0       0       0       0       0       0       0       0       
      +0       0       0       0
  2288 ;;      Locals:         0       0       0       0       0       0       0       0       0       0       0       0       
      +0       0       0       0
  2289 ;;      Temps:          0       0       0       0       0       0       0       0       0       0       0       0       
      +0       0       0       0
  2290 ;;      Totals:         0       0       0       0       0       0       0       0       0       0       0       0       
      +0       0       0       0
  2291 ;;Total ram usage:        0 bytes
  2292 ;; Hardware stack levels used:    1
  2293 ;; Hardware stack levels required when called:    2
  2294 ;; This function calls:
  2295 ;;		_encender_A
  2296 ;;		_encender_B
  2297 ;;		_encender_C
  2298 ;;		_encender_D
  2299 ;;		_encender_G
  2300 ;; This function is called by:
  2301 ;;		_construir_numero
  2302 ;; This function uses a non-reentrant model
  2303 ;;
  2304                           
  2305                           	psect	text18
  2306  00F770                     __ptext18:
  2307                           	opt stack 0
  2308  00F770                     _number_3:
  2309                           	opt stack 26
  2310                           
  2311                           ;unmc_display.c: 99: encender_A();
  2312                           
  2313                           ;incstack = 0
  2314  00F770  EC60  F07B         	call	_encender_A	;wreg free
  2315                           
  2316                           ;unmc_display.c: 100: encender_B();
  2317  00F774  EC65  F07B         	call	_encender_B	;wreg free
  2318                           
  2319                           ;unmc_display.c: 101: encender_C();
  2320  00F778  EC6A  F07B         	call	_encender_C	;wreg free
  2321                           
  2322                           ;unmc_display.c: 102: encender_D();
  2323  00F77C  EC6F  F07B         	call	_encender_D	;wreg free
  2324                           
  2325                           ;unmc_display.c: 103: encender_G();
  2326  00F780  EC83  F07B         	call	_encender_G	;wreg free
  2327  00F784  0012               	return		;funcret
  2328  00F786                     __end_of_number_3:
  2329                           	opt stack 0
  2330                           tblptru	equ	0xFF8
  2331                           wreg	equ	0xFE8
  2332                           status	equ	0xFD8
  2333                           
  2334 ;; *************** function _number_2 *****************
  2335 ;; Defined at:
  2336 ;;		line 90 in file "Unimic/unmc_01/headers/unmc_display.c"
  2337 ;; Parameters:    Size  Location     Type
  2338 ;;		None
  2339 ;; Auto vars:     Size  Location     Type
  2340 ;;		None
  2341 ;; Return value:  Size  Location     Type
  2342 ;;		None               void
  2343 ;; Registers used:
  2344 ;;		wreg, cstack
  2345 ;; Tracked objects:
  2346 ;;		On entry : 0/0
  2347 ;;		On exit  : 0/0
  2348 ;;		Unchanged: 0/0
  2349 ;; Data sizes:     COMRAM   BANK0   BANK1   BANK2   BANK3   BANK4   BANK5   BANK6   BANK7   BANK8   BANK9  BANK10  BANK1
      +1  BANK12  BANK13  BANK14
  2350 ;;      Params:         0       0       0       0       0       0       0       0       0       0       0       0       
      +0       0       0       0
  2351 ;;      Locals:         0       0       0       0       0       0       0       0       0       0       0       0       
      +0       0       0       0
  2352 ;;      Temps:          0       0       0       0       0       0       0       0       0       0       0       0       
      +0       0       0       0
  2353 ;;      Totals:         0       0       0       0       0       0       0       0       0       0       0       0       
      +0       0       0       0
  2354 ;;Total ram usage:        0 bytes
  2355 ;; Hardware stack levels used:    1
  2356 ;; Hardware stack levels required when called:    2
  2357 ;; This function calls:
  2358 ;;		_encender_A
  2359 ;;		_encender_B
  2360 ;;		_encender_D
  2361 ;;		_encender_E
  2362 ;;		_encender_G
  2363 ;; This function is called by:
  2364 ;;		_construir_numero
  2365 ;; This function uses a non-reentrant model
  2366 ;;
  2367                           
  2368                           	psect	text19
  2369  00F75A                     __ptext19:
  2370                           	opt stack 0
  2371  00F75A                     _number_2:
  2372                           	opt stack 26
  2373                           
  2374                           ;unmc_display.c: 91: encender_A();
  2375                           
  2376                           ;incstack = 0
  2377  00F75A  EC60  F07B         	call	_encender_A	;wreg free
  2378                           
  2379                           ;unmc_display.c: 92: encender_B();
  2380  00F75E  EC65  F07B         	call	_encender_B	;wreg free
  2381                           
  2382                           ;unmc_display.c: 93: encender_D();
  2383  00F762  EC6F  F07B         	call	_encender_D	;wreg free
  2384                           
  2385                           ;unmc_display.c: 94: encender_E();
  2386  00F766  EC74  F07B         	call	_encender_E	;wreg free
  2387                           
  2388                           ;unmc_display.c: 95: encender_G();
  2389  00F76A  EC83  F07B         	call	_encender_G	;wreg free
  2390  00F76E  0012               	return		;funcret
  2391  00F770                     __end_of_number_2:
  2392                           	opt stack 0
  2393                           tblptru	equ	0xFF8
  2394                           wreg	equ	0xFE8
  2395                           status	equ	0xFD8
  2396                           
  2397 ;; *************** function _encender_G *****************
  2398 ;; Defined at:
  2399 ;;		line 42 in file "Unimic/unmc_01/headers/unmc_display.c"
  2400 ;; Parameters:    Size  Location     Type
  2401 ;;		None
  2402 ;; Auto vars:     Size  Location     Type
  2403 ;;		None
  2404 ;; Return value:  Size  Location     Type
  2405 ;;		None               void
  2406 ;; Registers used:
  2407 ;;		wreg, cstack
  2408 ;; Tracked objects:
  2409 ;;		On entry : 0/0
  2410 ;;		On exit  : 0/0
  2411 ;;		Unchanged: 0/0
  2412 ;; Data sizes:     COMRAM   BANK0   BANK1   BANK2   BANK3   BANK4   BANK5   BANK6   BANK7   BANK8   BANK9  BANK10  BANK1
      +1  BANK12  BANK13  BANK14
  2413 ;;      Params:         0       0       0       0       0       0       0       0       0       0       0       0       
      +0       0       0       0
  2414 ;;      Locals:         0       0       0       0       0       0       0       0       0       0       0       0       
      +0       0       0       0
  2415 ;;      Temps:          0       0       0       0       0       0       0       0       0       0       0       0       
      +0       0       0       0
  2416 ;;      Totals:         0       0       0       0       0       0       0       0       0       0       0       0       
      +0       0       0       0
  2417 ;;Total ram usage:        0 bytes
  2418 ;; Hardware stack levels used:    1
  2419 ;; Hardware stack levels required when called:    1
  2420 ;; This function calls:
  2421 ;;		_tiempo_encendido_segmento
  2422 ;; This function is called by:
  2423 ;;		_mostrar_fuera_rango
  2424 ;;		_number_2
  2425 ;;		_number_3
  2426 ;;		_number_4
  2427 ;;		_number_5
  2428 ;;		_number_6
  2429 ;;		_number_8
  2430 ;;		_number_9
  2431 ;; This function uses a non-reentrant model
  2432 ;;
  2433                           
  2434                           	psect	text20
  2435  00F706                     __ptext20:
  2436                           	opt stack 0
  2437  00F706                     _encender_G:
  2438                           	opt stack 28
  2439                           
  2440                           ;unmc_display.c: 43: PORTBbits.RB1 = 1;;
  2441                           
  2442                           ;incstack = 0
  2443  00F706  8281               	bsf	3969,1,c	;volatile
  2444                           
  2445                           ;unmc_display.c: 44: tiempo_encendido_segmento();
  2446  00F708  EC9C  F07B         	call	_tiempo_encendido_segmento	;wreg free
  2447                           
  2448                           ;unmc_display.c: 45: PORTBbits.RB1 = 0;;
  2449  00F70C  9281               	bcf	3969,1,c	;volatile
  2450  00F70E  0012               	return		;funcret
  2451  00F710                     __end_of_encender_G:
  2452                           	opt stack 0
  2453                           tblptru	equ	0xFF8
  2454                           wreg	equ	0xFE8
  2455                           status	equ	0xFD8
  2456                           
  2457 ;; *************** function _number_1 *****************
  2458 ;; Defined at:
  2459 ;;		line 85 in file "Unimic/unmc_01/headers/unmc_display.c"
  2460 ;; Parameters:    Size  Location     Type
  2461 ;;		None
  2462 ;; Auto vars:     Size  Location     Type
  2463 ;;		None
  2464 ;; Return value:  Size  Location     Type
  2465 ;;		None               void
  2466 ;; Registers used:
  2467 ;;		wreg, cstack
  2468 ;; Tracked objects:
  2469 ;;		On entry : 0/0
  2470 ;;		On exit  : 0/0
  2471 ;;		Unchanged: 0/0
  2472 ;; Data sizes:     COMRAM   BANK0   BANK1   BANK2   BANK3   BANK4   BANK5   BANK6   BANK7   BANK8   BANK9  BANK10  BANK1
      +1  BANK12  BANK13  BANK14
  2473 ;;      Params:         0       0       0       0       0       0       0       0       0       0       0       0       
      +0       0       0       0
  2474 ;;      Locals:         0       0       0       0       0       0       0       0       0       0       0       0       
      +0       0       0       0
  2475 ;;      Temps:          0       0       0       0       0       0       0       0       0       0       0       0       
      +0       0       0       0
  2476 ;;      Totals:         0       0       0       0       0       0       0       0       0       0       0       0       
      +0       0       0       0
  2477 ;;Total ram usage:        0 bytes
  2478 ;; Hardware stack levels used:    1
  2479 ;; Hardware stack levels required when called:    2
  2480 ;; This function calls:
  2481 ;;		_encender_B
  2482 ;;		_encender_C
  2483 ;; This function is called by:
  2484 ;;		_construir_numero
  2485 ;; This function uses a non-reentrant model
  2486 ;;
  2487                           
  2488                           	psect	text21
  2489  00F6FC                     __ptext21:
  2490                           	opt stack 0
  2491  00F6FC                     _number_1:
  2492                           	opt stack 26
  2493                           
  2494                           ;unmc_display.c: 86: encender_B();
  2495                           
  2496                           ;incstack = 0
  2497  00F6FC  EC65  F07B         	call	_encender_B	;wreg free
  2498                           
  2499                           ;unmc_display.c: 87: encender_C();
  2500  00F700  EC6A  F07B         	call	_encender_C	;wreg free
  2501  00F704  0012               	return		;funcret
  2502  00F706                     __end_of_number_1:
  2503                           	opt stack 0
  2504                           tblptru	equ	0xFF8
  2505                           wreg	equ	0xFE8
  2506                           status	equ	0xFD8
  2507                           
  2508 ;; *************** function _number_0 *****************
  2509 ;; Defined at:
  2510 ;;		line 76 in file "Unimic/unmc_01/headers/unmc_display.c"
  2511 ;; Parameters:    Size  Location     Type
  2512 ;;		None
  2513 ;; Auto vars:     Size  Location     Type
  2514 ;;		None
  2515 ;; Return value:  Size  Location     Type
  2516 ;;		None               void
  2517 ;; Registers used:
  2518 ;;		wreg, cstack
  2519 ;; Tracked objects:
  2520 ;;		On entry : 0/0
  2521 ;;		On exit  : 0/0
  2522 ;;		Unchanged: 0/0
  2523 ;; Data sizes:     COMRAM   BANK0   BANK1   BANK2   BANK3   BANK4   BANK5   BANK6   BANK7   BANK8   BANK9  BANK10  BANK1
      +1  BANK12  BANK13  BANK14
  2524 ;;      Params:         0       0       0       0       0       0       0       0       0       0       0       0       
      +0       0       0       0
  2525 ;;      Locals:         0       0       0       0       0       0       0       0       0       0       0       0       
      +0       0       0       0
  2526 ;;      Temps:          0       0       0       0       0       0       0       0       0       0       0       0       
      +0       0       0       0
  2527 ;;      Totals:         0       0       0       0       0       0       0       0       0       0       0       0       
      +0       0       0       0
  2528 ;;Total ram usage:        0 bytes
  2529 ;; Hardware stack levels used:    1
  2530 ;; Hardware stack levels required when called:    2
  2531 ;; This function calls:
  2532 ;;		_encender_A
  2533 ;;		_encender_B
  2534 ;;		_encender_C
  2535 ;;		_encender_D
  2536 ;;		_encender_E
  2537 ;;		_encender_F
  2538 ;; This function is called by:
  2539 ;;		_construir_numero
  2540 ;; This function uses a non-reentrant model
  2541 ;;
  2542                           
  2543                           	psect	text22
  2544  00F79C                     __ptext22:
  2545                           	opt stack 0
  2546  00F79C                     _number_0:
  2547                           	opt stack 26
  2548                           
  2549                           ;unmc_display.c: 77: encender_A();
  2550                           
  2551                           ;incstack = 0
  2552  00F79C  EC60  F07B         	call	_encender_A	;wreg free
  2553                           
  2554                           ;unmc_display.c: 78: encender_B();
  2555  00F7A0  EC65  F07B         	call	_encender_B	;wreg free
  2556                           
  2557                           ;unmc_display.c: 79: encender_C();
  2558  00F7A4  EC6A  F07B         	call	_encender_C	;wreg free
  2559                           
  2560                           ;unmc_display.c: 80: encender_D();
  2561  00F7A8  EC6F  F07B         	call	_encender_D	;wreg free
  2562                           
  2563                           ;unmc_display.c: 81: encender_E();
  2564  00F7AC  EC74  F07B         	call	_encender_E	;wreg free
  2565                           
  2566                           ;unmc_display.c: 82: encender_F();
  2567  00F7B0  EC79  F07B         	call	_encender_F	;wreg free
  2568  00F7B4  0012               	return		;funcret
  2569  00F7B6                     __end_of_number_0:
  2570                           	opt stack 0
  2571                           tblptru	equ	0xFF8
  2572                           wreg	equ	0xFE8
  2573                           status	equ	0xFD8
  2574                           
  2575 ;; *************** function _encender_F *****************
  2576 ;; Defined at:
  2577 ;;		line 36 in file "Unimic/unmc_01/headers/unmc_display.c"
  2578 ;; Parameters:    Size  Location     Type
  2579 ;;		None
  2580 ;; Auto vars:     Size  Location     Type
  2581 ;;		None
  2582 ;; Return value:  Size  Location     Type
  2583 ;;		None               void
  2584 ;; Registers used:
  2585 ;;		wreg, cstack
  2586 ;; Tracked objects:
  2587 ;;		On entry : 0/0
  2588 ;;		On exit  : 0/0
  2589 ;;		Unchanged: 0/0
  2590 ;; Data sizes:     COMRAM   BANK0   BANK1   BANK2   BANK3   BANK4   BANK5   BANK6   BANK7   BANK8   BANK9  BANK10  BANK1
      +1  BANK12  BANK13  BANK14
  2591 ;;      Params:         0       0       0       0       0       0       0       0       0       0       0       0       
      +0       0       0       0
  2592 ;;      Locals:         0       0       0       0       0       0       0       0       0       0       0       0       
      +0       0       0       0
  2593 ;;      Temps:          0       0       0       0       0       0       0       0       0       0       0       0       
      +0       0       0       0
  2594 ;;      Totals:         0       0       0       0       0       0       0       0       0       0       0       0       
      +0       0       0       0
  2595 ;;Total ram usage:        0 bytes
  2596 ;; Hardware stack levels used:    1
  2597 ;; Hardware stack levels required when called:    1
  2598 ;; This function calls:
  2599 ;;		_tiempo_encendido_segmento
  2600 ;; This function is called by:
  2601 ;;		_mostrar_fuera_rango
  2602 ;;		_number_0
  2603 ;;		_number_4
  2604 ;;		_number_5
  2605 ;;		_number_6
  2606 ;;		_number_8
  2607 ;;		_number_9
  2608 ;; This function uses a non-reentrant model
  2609 ;;
  2610                           
  2611                           	psect	text23
  2612  00F6F2                     __ptext23:
  2613                           	opt stack 0
  2614  00F6F2                     _encender_F:
  2615                           	opt stack 28
  2616                           
  2617                           ;unmc_display.c: 37: PORTBbits.RB2 = 1;;
  2618                           
  2619                           ;incstack = 0
  2620  00F6F2  8481               	bsf	3969,2,c	;volatile
  2621                           
  2622                           ;unmc_display.c: 38: tiempo_encendido_segmento();
  2623  00F6F4  EC9C  F07B         	call	_tiempo_encendido_segmento	;wreg free
  2624                           
  2625                           ;unmc_display.c: 39: PORTBbits.RB2 = 0;;
  2626  00F6F8  9481               	bcf	3969,2,c	;volatile
  2627  00F6FA  0012               	return		;funcret
  2628  00F6FC                     __end_of_encender_F:
  2629                           	opt stack 0
  2630                           tblptru	equ	0xFF8
  2631                           wreg	equ	0xFE8
  2632                           status	equ	0xFD8
  2633                           
  2634 ;; *************** function _encender_E *****************
  2635 ;; Defined at:
  2636 ;;		line 30 in file "Unimic/unmc_01/headers/unmc_display.c"
  2637 ;; Parameters:    Size  Location     Type
  2638 ;;		None
  2639 ;; Auto vars:     Size  Location     Type
  2640 ;;		None
  2641 ;; Return value:  Size  Location     Type
  2642 ;;		None               void
  2643 ;; Registers used:
  2644 ;;		wreg, cstack
  2645 ;; Tracked objects:
  2646 ;;		On entry : 0/0
  2647 ;;		On exit  : 0/0
  2648 ;;		Unchanged: 0/0
  2649 ;; Data sizes:     COMRAM   BANK0   BANK1   BANK2   BANK3   BANK4   BANK5   BANK6   BANK7   BANK8   BANK9  BANK10  BANK1
      +1  BANK12  BANK13  BANK14
  2650 ;;      Params:         0       0       0       0       0       0       0       0       0       0       0       0       
      +0       0       0       0
  2651 ;;      Locals:         0       0       0       0       0       0       0       0       0       0       0       0       
      +0       0       0       0
  2652 ;;      Temps:          0       0       0       0       0       0       0       0       0       0       0       0       
      +0       0       0       0
  2653 ;;      Totals:         0       0       0       0       0       0       0       0       0       0       0       0       
      +0       0       0       0
  2654 ;;Total ram usage:        0 bytes
  2655 ;; Hardware stack levels used:    1
  2656 ;; Hardware stack levels required when called:    1
  2657 ;; This function calls:
  2658 ;;		_tiempo_encendido_segmento
  2659 ;; This function is called by:
  2660 ;;		_mostrar_fuera_rango
  2661 ;;		_number_0
  2662 ;;		_number_2
  2663 ;;		_number_6
  2664 ;;		_number_8
  2665 ;; This function uses a non-reentrant model
  2666 ;;
  2667                           
  2668                           	psect	text24
  2669  00F6E8                     __ptext24:
  2670                           	opt stack 0
  2671  00F6E8                     _encender_E:
  2672                           	opt stack 28
  2673                           
  2674                           ;unmc_display.c: 31: PORTBbits.RB3 = 1;;
  2675                           
  2676                           ;incstack = 0
  2677  00F6E8  8681               	bsf	3969,3,c	;volatile
  2678                           
  2679                           ;unmc_display.c: 32: tiempo_encendido_segmento();
  2680  00F6EA  EC9C  F07B         	call	_tiempo_encendido_segmento	;wreg free
  2681                           
  2682                           ;unmc_display.c: 33: PORTBbits.RB3 = 0;;
  2683  00F6EE  9681               	bcf	3969,3,c	;volatile
  2684  00F6F0  0012               	return		;funcret
  2685  00F6F2                     __end_of_encender_E:
  2686                           	opt stack 0
  2687                           tblptru	equ	0xFF8
  2688                           wreg	equ	0xFE8
  2689                           status	equ	0xFD8
  2690                           
  2691 ;; *************** function _encender_D *****************
  2692 ;; Defined at:
  2693 ;;		line 24 in file "Unimic/unmc_01/headers/unmc_display.c"
  2694 ;; Parameters:    Size  Location     Type
  2695 ;;		None
  2696 ;; Auto vars:     Size  Location     Type
  2697 ;;		None
  2698 ;; Return value:  Size  Location     Type
  2699 ;;		None               void
  2700 ;; Registers used:
  2701 ;;		wreg, cstack
  2702 ;; Tracked objects:
  2703 ;;		On entry : 0/0
  2704 ;;		On exit  : 0/0
  2705 ;;		Unchanged: 0/0
  2706 ;; Data sizes:     COMRAM   BANK0   BANK1   BANK2   BANK3   BANK4   BANK5   BANK6   BANK7   BANK8   BANK9  BANK10  BANK1
      +1  BANK12  BANK13  BANK14
  2707 ;;      Params:         0       0       0       0       0       0       0       0       0       0       0       0       
      +0       0       0       0
  2708 ;;      Locals:         0       0       0       0       0       0       0       0       0       0       0       0       
      +0       0       0       0
  2709 ;;      Temps:          0       0       0       0       0       0       0       0       0       0       0       0       
      +0       0       0       0
  2710 ;;      Totals:         0       0       0       0       0       0       0       0       0       0       0       0       
      +0       0       0       0
  2711 ;;Total ram usage:        0 bytes
  2712 ;; Hardware stack levels used:    1
  2713 ;; Hardware stack levels required when called:    1
  2714 ;; This function calls:
  2715 ;;		_tiempo_encendido_segmento
  2716 ;; This function is called by:
  2717 ;;		_number_0
  2718 ;;		_number_2
  2719 ;;		_number_3
  2720 ;;		_number_5
  2721 ;;		_number_6
  2722 ;;		_number_8
  2723 ;;		_number_9
  2724 ;; This function uses a non-reentrant model
  2725 ;;
  2726                           
  2727                           	psect	text25
  2728  00F6DE                     __ptext25:
  2729                           	opt stack 0
  2730  00F6DE                     _encender_D:
  2731                           	opt stack 26
  2732                           
  2733                           ;unmc_display.c: 25: PORTBbits.RB4 = 1;;
  2734                           
  2735                           ;incstack = 0
  2736  00F6DE  8881               	bsf	3969,4,c	;volatile
  2737                           
  2738                           ;unmc_display.c: 26: tiempo_encendido_segmento();
  2739  00F6E0  EC9C  F07B         	call	_tiempo_encendido_segmento	;wreg free
  2740                           
  2741                           ;unmc_display.c: 27: PORTBbits.RB4 = 0;;
  2742  00F6E4  9881               	bcf	3969,4,c	;volatile
  2743  00F6E6  0012               	return		;funcret
  2744  00F6E8                     __end_of_encender_D:
  2745                           	opt stack 0
  2746                           tblptru	equ	0xFF8
  2747                           wreg	equ	0xFE8
  2748                           status	equ	0xFD8
  2749                           
  2750 ;; *************** function _encender_C *****************
  2751 ;; Defined at:
  2752 ;;		line 18 in file "Unimic/unmc_01/headers/unmc_display.c"
  2753 ;; Parameters:    Size  Location     Type
  2754 ;;		None
  2755 ;; Auto vars:     Size  Location     Type
  2756 ;;		None
  2757 ;; Return value:  Size  Location     Type
  2758 ;;		None               void
  2759 ;; Registers used:
  2760 ;;		wreg, cstack
  2761 ;; Tracked objects:
  2762 ;;		On entry : 0/0
  2763 ;;		On exit  : 0/0
  2764 ;;		Unchanged: 0/0
  2765 ;; Data sizes:     COMRAM   BANK0   BANK1   BANK2   BANK3   BANK4   BANK5   BANK6   BANK7   BANK8   BANK9  BANK10  BANK1
      +1  BANK12  BANK13  BANK14
  2766 ;;      Params:         0       0       0       0       0       0       0       0       0       0       0       0       
      +0       0       0       0
  2767 ;;      Locals:         0       0       0       0       0       0       0       0       0       0       0       0       
      +0       0       0       0
  2768 ;;      Temps:          0       0       0       0       0       0       0       0       0       0       0       0       
      +0       0       0       0
  2769 ;;      Totals:         0       0       0       0       0       0       0       0       0       0       0       0       
      +0       0       0       0
  2770 ;;Total ram usage:        0 bytes
  2771 ;; Hardware stack levels used:    1
  2772 ;; Hardware stack levels required when called:    1
  2773 ;; This function calls:
  2774 ;;		_tiempo_encendido_segmento
  2775 ;; This function is called by:
  2776 ;;		_mostrar_fuera_rango
  2777 ;;		_number_0
  2778 ;;		_number_1
  2779 ;;		_number_3
  2780 ;;		_number_4
  2781 ;;		_number_5
  2782 ;;		_number_6
  2783 ;;		_number_7
  2784 ;;		_number_8
  2785 ;;		_number_9
  2786 ;; This function uses a non-reentrant model
  2787 ;;
  2788                           
  2789                           	psect	text26
  2790  00F6D4                     __ptext26:
  2791                           	opt stack 0
  2792  00F6D4                     _encender_C:
  2793                           	opt stack 28
  2794                           
  2795                           ;unmc_display.c: 19: PORTBbits.RB5 = 1;;
  2796                           
  2797                           ;incstack = 0
  2798  00F6D4  8A81               	bsf	3969,5,c	;volatile
  2799                           
  2800                           ;unmc_display.c: 20: tiempo_encendido_segmento();
  2801  00F6D6  EC9C  F07B         	call	_tiempo_encendido_segmento	;wreg free
  2802                           
  2803                           ;unmc_display.c: 21: PORTBbits.RB5 = 0;;
  2804  00F6DA  9A81               	bcf	3969,5,c	;volatile
  2805  00F6DC  0012               	return		;funcret
  2806  00F6DE                     __end_of_encender_C:
  2807                           	opt stack 0
  2808                           tblptru	equ	0xFF8
  2809                           wreg	equ	0xFE8
  2810                           status	equ	0xFD8
  2811                           
  2812 ;; *************** function _encender_B *****************
  2813 ;; Defined at:
  2814 ;;		line 12 in file "Unimic/unmc_01/headers/unmc_display.c"
  2815 ;; Parameters:    Size  Location     Type
  2816 ;;		None
  2817 ;; Auto vars:     Size  Location     Type
  2818 ;;		None
  2819 ;; Return value:  Size  Location     Type
  2820 ;;		None               void
  2821 ;; Registers used:
  2822 ;;		wreg, cstack
  2823 ;; Tracked objects:
  2824 ;;		On entry : 0/0
  2825 ;;		On exit  : 0/0
  2826 ;;		Unchanged: 0/0
  2827 ;; Data sizes:     COMRAM   BANK0   BANK1   BANK2   BANK3   BANK4   BANK5   BANK6   BANK7   BANK8   BANK9  BANK10  BANK1
      +1  BANK12  BANK13  BANK14
  2828 ;;      Params:         0       0       0       0       0       0       0       0       0       0       0       0       
      +0       0       0       0
  2829 ;;      Locals:         0       0       0       0       0       0       0       0       0       0       0       0       
      +0       0       0       0
  2830 ;;      Temps:          0       0       0       0       0       0       0       0       0       0       0       0       
      +0       0       0       0
  2831 ;;      Totals:         0       0       0       0       0       0       0       0       0       0       0       0       
      +0       0       0       0
  2832 ;;Total ram usage:        0 bytes
  2833 ;; Hardware stack levels used:    1
  2834 ;; Hardware stack levels required when called:    1
  2835 ;; This function calls:
  2836 ;;		_tiempo_encendido_segmento
  2837 ;; This function is called by:
  2838 ;;		_mostrar_fuera_rango
  2839 ;;		_number_0
  2840 ;;		_number_1
  2841 ;;		_number_2
  2842 ;;		_number_3
  2843 ;;		_number_4
  2844 ;;		_number_7
  2845 ;;		_number_8
  2846 ;;		_number_9
  2847 ;; This function uses a non-reentrant model
  2848 ;;
  2849                           
  2850                           	psect	text27
  2851  00F6CA                     __ptext27:
  2852                           	opt stack 0
  2853  00F6CA                     _encender_B:
  2854                           	opt stack 28
  2855                           
  2856                           ;unmc_display.c: 13: PORTBbits.RB6 = 1;;
  2857                           
  2858                           ;incstack = 0
  2859  00F6CA  8C81               	bsf	3969,6,c	;volatile
  2860                           
  2861                           ;unmc_display.c: 14: tiempo_encendido_segmento();
  2862  00F6CC  EC9C  F07B         	call	_tiempo_encendido_segmento	;wreg free
  2863                           
  2864                           ;unmc_display.c: 15: PORTBbits.RB6 = 0;;
  2865  00F6D0  9C81               	bcf	3969,6,c	;volatile
  2866  00F6D2  0012               	return		;funcret
  2867  00F6D4                     __end_of_encender_B:
  2868                           	opt stack 0
  2869                           tblptru	equ	0xFF8
  2870                           wreg	equ	0xFE8
  2871                           status	equ	0xFD8
  2872                           
  2873 ;; *************** function _encender_A *****************
  2874 ;; Defined at:
  2875 ;;		line 6 in file "Unimic/unmc_01/headers/unmc_display.c"
  2876 ;; Parameters:    Size  Location     Type
  2877 ;;		None
  2878 ;; Auto vars:     Size  Location     Type
  2879 ;;		None
  2880 ;; Return value:  Size  Location     Type
  2881 ;;		None               void
  2882 ;; Registers used:
  2883 ;;		wreg, cstack
  2884 ;; Tracked objects:
  2885 ;;		On entry : 0/0
  2886 ;;		On exit  : 0/0
  2887 ;;		Unchanged: 0/0
  2888 ;; Data sizes:     COMRAM   BANK0   BANK1   BANK2   BANK3   BANK4   BANK5   BANK6   BANK7   BANK8   BANK9  BANK10  BANK1
      +1  BANK12  BANK13  BANK14
  2889 ;;      Params:         0       0       0       0       0       0       0       0       0       0       0       0       
      +0       0       0       0
  2890 ;;      Locals:         0       0       0       0       0       0       0       0       0       0       0       0       
      +0       0       0       0
  2891 ;;      Temps:          0       0       0       0       0       0       0       0       0       0       0       0       
      +0       0       0       0
  2892 ;;      Totals:         0       0       0       0       0       0       0       0       0       0       0       0       
      +0       0       0       0
  2893 ;;Total ram usage:        0 bytes
  2894 ;; Hardware stack levels used:    1
  2895 ;; Hardware stack levels required when called:    1
  2896 ;; This function calls:
  2897 ;;		_tiempo_encendido_segmento
  2898 ;; This function is called by:
  2899 ;;		_mostrar_fuera_rango
  2900 ;;		_number_0
  2901 ;;		_number_2
  2902 ;;		_number_3
  2903 ;;		_number_5
  2904 ;;		_number_6
  2905 ;;		_number_7
  2906 ;;		_number_8
  2907 ;;		_number_9
  2908 ;; This function uses a non-reentrant model
  2909 ;;
  2910                           
  2911                           	psect	text28
  2912  00F6C0                     __ptext28:
  2913                           	opt stack 0
  2914  00F6C0                     _encender_A:
  2915                           	opt stack 28
  2916                           
  2917                           ;unmc_display.c: 7: PORTBbits.RB7 = 1;;
  2918                           
  2919                           ;incstack = 0
  2920  00F6C0  8E81               	bsf	3969,7,c	;volatile
  2921                           
  2922                           ;unmc_display.c: 8: tiempo_encendido_segmento();
  2923  00F6C2  EC9C  F07B         	call	_tiempo_encendido_segmento	;wreg free
  2924                           
  2925                           ;unmc_display.c: 9: PORTBbits.RB7 = 0;;
  2926  00F6C6  9E81               	bcf	3969,7,c	;volatile
  2927  00F6C8  0012               	return		;funcret
  2928  00F6CA                     __end_of_encender_A:
  2929                           	opt stack 0
  2930                           tblptru	equ	0xFF8
  2931                           wreg	equ	0xFE8
  2932                           status	equ	0xFD8
  2933                           
  2934 ;; *************** function _tiempo_encendido_segmento *****************
  2935 ;; Defined at:
  2936 ;;		line 3 in file "Unimic/unmc_01/headers/unmc_display.c"
  2937 ;; Parameters:    Size  Location     Type
  2938 ;;		None
  2939 ;; Auto vars:     Size  Location     Type
  2940 ;;		None
  2941 ;; Return value:  Size  Location     Type
  2942 ;;		None               void
  2943 ;; Registers used:
  2944 ;;		wreg
  2945 ;; Tracked objects:
  2946 ;;		On entry : 0/0
  2947 ;;		On exit  : 0/0
  2948 ;;		Unchanged: 0/0
  2949 ;; Data sizes:     COMRAM   BANK0   BANK1   BANK2   BANK3   BANK4   BANK5   BANK6   BANK7   BANK8   BANK9  BANK10  BANK1
      +1  BANK12  BANK13  BANK14
  2950 ;;      Params:         0       0       0       0       0       0       0       0       0       0       0       0       
      +0       0       0       0
  2951 ;;      Locals:         0       0       0       0       0       0       0       0       0       0       0       0       
      +0       0       0       0
  2952 ;;      Temps:          1       0       0       0       0       0       0       0       0       0       0       0       
      +0       0       0       0
  2953 ;;      Totals:         1       0       0       0       0       0       0       0       0       0       0       0       
      +0       0       0       0
  2954 ;;Total ram usage:        1 bytes
  2955 ;; Hardware stack levels used:    1
  2956 ;; This function calls:
  2957 ;;		Nothing
  2958 ;; This function is called by:
  2959 ;;		_encender_A
  2960 ;;		_encender_B
  2961 ;;		_encender_C
  2962 ;;		_encender_D
  2963 ;;		_encender_E
  2964 ;;		_encender_F
  2965 ;;		_encender_G
  2966 ;; This function uses a non-reentrant model
  2967 ;;
  2968                           
  2969                           	psect	text29
  2970  00F738                     __ptext29:
  2971                           	opt stack 0
  2972  00F738                     _tiempo_encendido_segmento:
  2973                           	opt stack 28
  2974                           
  2975                           ;unmc_display.c: 4: _delay((unsigned long)((1)*(8000000/4000.0)));
  2976                           
  2977                           ;incstack = 0
  2978  00F738  0E03               	movlw	3
  2979  00F73A  6E01               	movwf	??_tiempo_encendido_segmento& (0+255),c
  2980  00F73C  0E98               	movlw	152
  2981  00F73E                     u1107:
  2982  00F73E  2EE8               	decfsz	wreg,f,c
  2983  00F740  D7FE               	goto	u1107
  2984  00F742  2E01               	decfsz	??_tiempo_encendido_segmento& (0+255),f,c
  2985  00F744  D7FC               	goto	u1107
  2986  00F746  0012               	return		;funcret
  2987  00F748                     __end_of_tiempo_encendido_segmento:
  2988                           	opt stack 0
  2989                           tblptru	equ	0xFF8
  2990                           wreg	equ	0xFE8
  2991                           status	equ	0xFD8
  2992                           
  2993 ;; *************** function _apagar_segmentos *****************
  2994 ;; Defined at:
  2995 ;;		line 48 in file "Unimic/unmc_01/headers/unmc_display.c"
  2996 ;; Parameters:    Size  Location     Type
  2997 ;;		None
  2998 ;; Auto vars:     Size  Location     Type
  2999 ;;		None
  3000 ;; Return value:  Size  Location     Type
  3001 ;;		None               void
  3002 ;; Registers used:
  3003 ;;		None
  3004 ;; Tracked objects:
  3005 ;;		On entry : 0/0
  3006 ;;		On exit  : 0/0
  3007 ;;		Unchanged: 0/0
  3008 ;; Data sizes:     COMRAM   BANK0   BANK1   BANK2   BANK3   BANK4   BANK5   BANK6   BANK7   BANK8   BANK9  BANK10  BANK1
      +1  BANK12  BANK13  BANK14
  3009 ;;      Params:         0       0       0       0       0       0       0       0       0       0       0       0       
      +0       0       0       0
  3010 ;;      Locals:         0       0       0       0       0       0       0       0       0       0       0       0       
      +0       0       0       0
  3011 ;;      Temps:          0       0       0       0       0       0       0       0       0       0       0       0       
      +0       0       0       0
  3012 ;;      Totals:         0       0       0       0       0       0       0       0       0       0       0       0       
      +0       0       0       0
  3013 ;;Total ram usage:        0 bytes
  3014 ;; Hardware stack levels used:    1
  3015 ;; This function calls:
  3016 ;;		Nothing
  3017 ;; This function is called by:
  3018 ;;		_construir_numero
  3019 ;; This function uses a non-reentrant model
  3020 ;;
  3021                           
  3022                           	psect	text30
  3023  00F728                     __ptext30:
  3024                           	opt stack 0
  3025  00F728                     _apagar_segmentos:
  3026                           	opt stack 28
  3027                           
  3028                           ;unmc_display.c: 49: PORTBbits.RB7 = 0;;
  3029                           
  3030                           ;incstack = 0
  3031  00F728  9E81               	bcf	3969,7,c	;volatile
  3032                           
  3033                           ;unmc_display.c: 50: PORTBbits.RB6 = 0;;
  3034  00F72A  9C81               	bcf	3969,6,c	;volatile
  3035                           
  3036                           ;unmc_display.c: 51: PORTBbits.RB5 = 0;;
  3037  00F72C  9A81               	bcf	3969,5,c	;volatile
  3038                           
  3039                           ;unmc_display.c: 52: PORTBbits.RB4 = 0;;
  3040  00F72E  9881               	bcf	3969,4,c	;volatile
  3041                           
  3042                           ;unmc_display.c: 53: PORTBbits.RB3 = 0;;
  3043  00F730  9681               	bcf	3969,3,c	;volatile
  3044                           
  3045                           ;unmc_display.c: 54: PORTBbits.RB2 = 0;;
  3046  00F732  9481               	bcf	3969,2,c	;volatile
  3047                           
  3048                           ;unmc_display.c: 55: PORTBbits.RB1 = 0;;
  3049  00F734  9281               	bcf	3969,1,c	;volatile
  3050  00F736  0012               	return		;funcret
  3051  00F738                     __end_of_apagar_segmentos:
  3052                           	opt stack 0
  3053                           tblptru	equ	0xFF8
  3054                           wreg	equ	0xFE8
  3055                           status	equ	0xFD8
  3056                           
  3057 ;; *************** function ___wmul *****************
  3058 ;; Defined at:
  3059 ;;		line 15 in file "C:\Program Files (x86)\Microchip\xc8\v1.34\sources\common\Umul16.c"
  3060 ;; Parameters:    Size  Location     Type
  3061 ;;  multiplier      2    0[COMRAM] unsigned int 
  3062 ;;  multiplicand    2    2[COMRAM] unsigned int 
  3063 ;; Auto vars:     Size  Location     Type
  3064 ;;  product         2    4[COMRAM] unsigned int 
  3065 ;; Return value:  Size  Location     Type
  3066 ;;                  2    0[COMRAM] unsigned int 
  3067 ;; Registers used:
  3068 ;;		wreg, status,2, status,0, prodl, prodh
  3069 ;; Tracked objects:
  3070 ;;		On entry : 0/0
  3071 ;;		On exit  : 0/0
  3072 ;;		Unchanged: 0/0
  3073 ;; Data sizes:     COMRAM   BANK0   BANK1   BANK2   BANK3   BANK4   BANK5   BANK6   BANK7   BANK8   BANK9  BANK10  BANK1
      +1  BANK12  BANK13  BANK14
  3074 ;;      Params:         4       0       0       0       0       0       0       0       0       0       0       0       
      +0       0       0       0
  3075 ;;      Locals:         2       0       0       0       0       0       0       0       0       0       0       0       
      +0       0       0       0
  3076 ;;      Temps:          0       0       0       0       0       0       0       0       0       0       0       0       
      +0       0       0       0
  3077 ;;      Totals:         6       0       0       0       0       0       0       0       0       0       0       0       
      +0       0       0       0
  3078 ;;Total ram usage:        6 bytes
  3079 ;; Hardware stack levels used:    1
  3080 ;; This function calls:
  3081 ;;		Nothing
  3082 ;; This function is called by:
  3083 ;;		_imprimir_temperatura
  3084 ;; This function uses a non-reentrant model
  3085 ;;
  3086                           
  3087                           	psect	text31
  3088  00F808                     __ptext31:
  3089                           	opt stack 0
  3090  00F808                     ___wmul:
  3091                           	opt stack 29
  3092                           
  3093                           ;incstack = 0
  3094  00F808  5001               	movf	___wmul@multiplier,w,c
  3095  00F80A  0203               	mulwf	___wmul@multiplicand,c
  3096  00F80C  CFF3 F005          	movff	prodl,___wmul@product
  3097  00F810  CFF4 F006          	movff	prodh,___wmul@product+1
  3098  00F814  5001               	movf	___wmul@multiplier,w,c
  3099  00F816  0204               	mulwf	___wmul@multiplicand+1,c
  3100  00F818  50F3               	movf	prodl,w,c
  3101  00F81A  2606               	addwf	___wmul@product+1,f,c
  3102  00F81C  5002               	movf	___wmul@multiplier+1,w,c
  3103  00F81E  0203               	mulwf	___wmul@multiplicand,c
  3104  00F820  50F3               	movf	prodl,w,c
  3105  00F822  2606               	addwf	___wmul@product+1,f,c
  3106  00F824  C005  F001         	movff	___wmul@product,?___wmul
  3107  00F828  C006  F002         	movff	___wmul@product+1,?___wmul+1
  3108  00F82C  0012               	return	
  3109  00F82E  0012               	return		;funcret
  3110  00F830                     __end_of___wmul:
  3111                           	opt stack 0
  3112                           tblptru	equ	0xFF8
  3113                           prodh	equ	0xFF4
  3114                           prodl	equ	0xFF3
  3115                           wreg	equ	0xFE8
  3116                           status	equ	0xFD8
  3117                           
  3118 ;; *************** function ___awdiv *****************
  3119 ;; Defined at:
  3120 ;;		line 8 in file "C:\Program Files (x86)\Microchip\xc8\v1.34\sources\common\awdiv.c"
  3121 ;; Parameters:    Size  Location     Type
  3122 ;;  dividend        2    0[COMRAM] int 
  3123 ;;  divisor         2    2[COMRAM] int 
  3124 ;; Auto vars:     Size  Location     Type
  3125 ;;  quotient        2    6[COMRAM] int 
  3126 ;;  sign            1    5[COMRAM] unsigned char 
  3127 ;;  counter         1    4[COMRAM] unsigned char 
  3128 ;; Return value:  Size  Location     Type
  3129 ;;                  2    0[COMRAM] int 
  3130 ;; Registers used:
  3131 ;;		wreg, status,2, status,0
  3132 ;; Tracked objects:
  3133 ;;		On entry : 0/0
  3134 ;;		On exit  : 0/0
  3135 ;;		Unchanged: 0/0
  3136 ;; Data sizes:     COMRAM   BANK0   BANK1   BANK2   BANK3   BANK4   BANK5   BANK6   BANK7   BANK8   BANK9  BANK10  BANK1
      +1  BANK12  BANK13  BANK14
  3137 ;;      Params:         4       0       0       0       0       0       0       0       0       0       0       0       
      +0       0       0       0
  3138 ;;      Locals:         4       0       0       0       0       0       0       0       0       0       0       0       
      +0       0       0       0
  3139 ;;      Temps:          0       0       0       0       0       0       0       0       0       0       0       0       
      +0       0       0       0
  3140 ;;      Totals:         8       0       0       0       0       0       0       0       0       0       0       0       
      +0       0       0       0
  3141 ;;Total ram usage:        8 bytes
  3142 ;; Hardware stack levels used:    1
  3143 ;; This function calls:
  3144 ;;		Nothing
  3145 ;; This function is called by:
  3146 ;;		_imprimir_temperatura
  3147 ;; This function uses a non-reentrant model
  3148 ;;
  3149                           
  3150                           	psect	text32
  3151  00FAD4                     __ptext32:
  3152                           	opt stack 0
  3153  00FAD4                     ___awdiv:
  3154                           	opt stack 29
  3155                           
  3156                           ;incstack = 0
  3157  00FAD4  0E00               	movlw	0
  3158  00FAD6  6E06               	movwf	___awdiv@sign,c
  3159  00FAD8  AE04               	btfss	___awdiv@divisor+1,7,c
  3160  00FADA  D007               	goto	l1439
  3161  00FADC  6C03               	negf	___awdiv@divisor,c
  3162  00FADE  1E04               	comf	___awdiv@divisor+1,f,c
  3163  00FAE0  B0D8               	btfsc	status,0,c
  3164  00FAE2  2A04               	incf	___awdiv@divisor+1,f,c
  3165  00FAE4  0E01               	movlw	1
  3166  00FAE6  6E06               	movwf	___awdiv@sign,c
  3167  00FAE8  D000               	goto	l1439
  3168  00FAEA                     l1439:
  3169  00FAEA  AE02               	btfss	___awdiv@dividend+1,7,c
  3170  00FAEC  D007               	goto	l1445
  3171  00FAEE  6C01               	negf	___awdiv@dividend,c
  3172  00FAF0  1E02               	comf	___awdiv@dividend+1,f,c
  3173  00FAF2  B0D8               	btfsc	status,0,c
  3174  00FAF4  2A02               	incf	___awdiv@dividend+1,f,c
  3175  00FAF6  0E01               	movlw	1
  3176  00FAF8  1A06               	xorwf	___awdiv@sign,f,c
  3177  00FAFA  D000               	goto	l1445
  3178  00FAFC                     l1445:
  3179  00FAFC  0E00               	movlw	0
  3180  00FAFE  6E08               	movwf	___awdiv@quotient+1,c
  3181  00FB00  0E00               	movlw	0
  3182  00FB02  6E07               	movwf	___awdiv@quotient,c
  3183  00FB04  5003               	movf	___awdiv@divisor,w,c
  3184  00FB06  1004               	iorwf	___awdiv@divisor+1,w,c
  3185  00FB08  B4D8               	btfsc	status,2,c
  3186  00FB0A  D021               	goto	l1467
  3187  00FB0C  0E01               	movlw	1
  3188  00FB0E  6E05               	movwf	___awdiv@counter,c
  3189  00FB10  D005               	goto	l1453
  3190  00FB12                     l1451:
  3191  00FB12  90D8               	bcf	status,0,c
  3192  00FB14  3603               	rlcf	___awdiv@divisor,f,c
  3193  00FB16  3604               	rlcf	___awdiv@divisor+1,f,c
  3194  00FB18  2A05               	incf	___awdiv@counter,f,c
  3195  00FB1A  D000               	goto	l1453
  3196  00FB1C                     l1453:
  3197  00FB1C  BE04               	btfsc	___awdiv@divisor+1,7,c
  3198  00FB1E  D002               	goto	l1455
  3199  00FB20  D7F8               	goto	l1451
  3200  00FB22  D000               	goto	l1455
  3201  00FB24                     l1455:
  3202  00FB24  90D8               	bcf	status,0,c
  3203  00FB26  3607               	rlcf	___awdiv@quotient,f,c
  3204  00FB28  3608               	rlcf	___awdiv@quotient+1,f,c
  3205  00FB2A  5003               	movf	___awdiv@divisor,w,c
  3206  00FB2C  5C01               	subwf	___awdiv@dividend,w,c
  3207  00FB2E  5004               	movf	___awdiv@divisor+1,w,c
  3208  00FB30  5802               	subwfb	___awdiv@dividend+1,w,c
  3209  00FB32  A0D8               	btfss	status,0,c
  3210  00FB34  D006               	goto	l1463
  3211  00FB36  5003               	movf	___awdiv@divisor,w,c
  3212  00FB38  5E01               	subwf	___awdiv@dividend,f,c
  3213  00FB3A  5004               	movf	___awdiv@divisor+1,w,c
  3214  00FB3C  5A02               	subwfb	___awdiv@dividend+1,f,c
  3215  00FB3E  8007               	bsf	___awdiv@quotient,0,c
  3216  00FB40  D000               	goto	l1463
  3217  00FB42                     l1463:
  3218  00FB42  90D8               	bcf	status,0,c
  3219  00FB44  3204               	rrcf	___awdiv@divisor+1,f,c
  3220  00FB46  3203               	rrcf	___awdiv@divisor,f,c
  3221  00FB48  2E05               	decfsz	___awdiv@counter,f,c
  3222  00FB4A  D7EC               	goto	l1455
  3223  00FB4C  D000               	goto	l1467
  3224  00FB4E                     l1467:
  3225  00FB4E  5006               	movf	___awdiv@sign,w,c
  3226  00FB50  B4D8               	btfsc	status,2,c
  3227  00FB52  D005               	goto	l1471
  3228  00FB54  6C07               	negf	___awdiv@quotient,c
  3229  00FB56  1E08               	comf	___awdiv@quotient+1,f,c
  3230  00FB58  B0D8               	btfsc	status,0,c
  3231  00FB5A  2A08               	incf	___awdiv@quotient+1,f,c
  3232  00FB5C  D000               	goto	l1471
  3233  00FB5E                     l1471:
  3234  00FB5E  C007  F001         	movff	___awdiv@quotient,?___awdiv
  3235  00FB62  C008  F002         	movff	___awdiv@quotient+1,?___awdiv+1
  3236  00FB66  0012               	return	
  3237  00FB68  0012               	return		;funcret
  3238  00FB6A                     __end_of___awdiv:
  3239                           	opt stack 0
  3240  0000                     tblptru	equ	0xFF8
  3241                           prodh	equ	0xFF4
  3242                           prodl	equ	0xFF3
  3243                           wreg	equ	0xFE8
  3244                           status	equ	0xFD8
  3245                           tblptru	equ	0xFF8
  3246                           prodh	equ	0xFF4
  3247                           prodl	equ	0xFF3
  3248                           wreg	equ	0xFE8
  3249                           status	equ	0xFD8
  3250                           
  3251                           	psect	rparam
  3252  0000                     tblptru	equ	0xFF8
  3253                           prodh	equ	0xFF4
  3254                           prodl	equ	0xFF3
  3255                           wreg	equ	0xFE8
  3256                           status	equ	0xFD8


Data Sizes:
    Strings     0
    Constant    0
    Data        0
    BSS         0
    Persistent  0
    Stack       0

Auto Spaces:
    Space          Size  Autos    Used
    COMRAM           95     65      65
    BANK0           160      0       0
    BANK1           256      0       0
    BANK2           256      0       0
    BANK3           256      0       0
    BANK4           256      0       0
    BANK5           256      0       0
    BANK6           256      0       0
    BANK7           256      0       0
    BANK8           256      0       0
    BANK9           256      0       0
    BANK10          256      0       0
    BANK11          256      0       0
    BANK12          256      0       0
    BANK13          256      0       0
    BANK14          192      0       0

Pointer List with Targets:

    None.

Critical Paths under _main in COMRAM

    _main->_leer_temperatura
    _leer_temperatura->_calcular_temperatura
    _calcular_temperatura->___fttol
    ___fttol->___ftadd
    ___ftmul->___awtoft
    ___ftadd->___ftmul
    ___awtoft->___ftpack
    _imprimir_temperatura->___awdiv
    _encender_G->_tiempo_encendido_segmento
    _encender_F->_tiempo_encendido_segmento
    _encender_E->_tiempo_encendido_segmento
    _encender_D->_tiempo_encendido_segmento
    _encender_C->_tiempo_encendido_segmento
    _encender_B->_tiempo_encendido_segmento
    _encender_A->_tiempo_encendido_segmento

Critical Paths under _main in BANK0

    None.

Critical Paths under _main in BANK1

    None.

Critical Paths under _main in BANK2

    None.

Critical Paths under _main in BANK3

    None.

Critical Paths under _main in BANK4

    None.

Critical Paths under _main in BANK5

    None.

Critical Paths under _main in BANK6

    None.

Critical Paths under _main in BANK7

    None.

Critical Paths under _main in BANK8

    None.

Critical Paths under _main in BANK9

    None.

Critical Paths under _main in BANK10

    None.

Critical Paths under _main in BANK11

    None.

Critical Paths under _main in BANK12

    None.

Critical Paths under _main in BANK13

    None.

Critical Paths under _main in BANK14

    None.

Call Graph Tables:

 ---------------------------------------------------------------------------------
 (Depth) Function   	        Calls       Base Space   Used Autos Params    Refs
 ---------------------------------------------------------------------------------
 (0) _main                                                 4     4      0    7035
                                             61 COMRAM     4     4      0
               _imprimir_temperatura
                   _leer_temperatura
                _mostrar_fuera_rango
                              _setup
 ---------------------------------------------------------------------------------
 (1) _setup                                                0     0      0       0
 ---------------------------------------------------------------------------------
 (1) _mostrar_fuera_rango                                  0     0      0       0
                         _encender_A
                         _encender_B
                         _encender_C
                         _encender_E
                         _encender_F
                         _encender_G
 ---------------------------------------------------------------------------------
 (1) _leer_temperatura                                     5     3      2    6049
                                             56 COMRAM     5     3      2
               _calcular_temperatura
 ---------------------------------------------------------------------------------
 (2) _calcular_temperatura                                 2     0      2    6026
                                             54 COMRAM     2     0      2
                           ___awtoft
                            ___ftadd
                            ___ftmul
                            ___fttol
 ---------------------------------------------------------------------------------
 (3) ___fttol                                             15    11      4     295
                                             39 COMRAM    15    11      4
                           ___awtoft (ARG)
                            ___ftadd (ARG)
                            ___ftmul (ARG)
 ---------------------------------------------------------------------------------
 (3) ___ftmul                                             15     9      6    1810
                                             12 COMRAM    15     9      6
                           ___awtoft (ARG)
                           ___ftpack
 ---------------------------------------------------------------------------------
 (3) ___ftadd                                             12     6      6    2384
                                             27 COMRAM    12     6      6
                           ___awtoft (ARG)
                            ___ftmul (ARG)
                           ___ftpack
 ---------------------------------------------------------------------------------
 (3) ___awtoft                                             4     1      3    1472
                                              8 COMRAM     4     1      3
                           ___ftpack
 ---------------------------------------------------------------------------------
 (4) ___ftpack                                             8     3      5    1338
                                              0 COMRAM     8     3      5
 ---------------------------------------------------------------------------------
 (1) _imprimir_temperatura                                 6     4      2     894
                                              8 COMRAM     6     4      2
                            ___awdiv
                             ___wmul
                   _construir_numero
 ---------------------------------------------------------------------------------
 (2) _construir_numero                                     4     2      2     108
                                              1 COMRAM     4     2      2
                   _apagar_segmentos
                           _number_0
                           _number_1
                           _number_2
                           _number_3
                           _number_4
                           _number_5
                           _number_6
                           _number_7
                           _number_8
                           _number_9
 ---------------------------------------------------------------------------------
 (3) _number_9                                             0     0      0       0
                         _encender_A
                         _encender_B
                         _encender_C
                         _encender_D
                         _encender_F
                         _encender_G
 ---------------------------------------------------------------------------------
 (3) _number_8                                             0     0      0       0
                         _encender_A
                         _encender_B
                         _encender_C
                         _encender_D
                         _encender_E
                         _encender_F
                         _encender_G
 ---------------------------------------------------------------------------------
 (3) _number_7                                             0     0      0       0
                         _encender_A
                         _encender_B
                         _encender_C
 ---------------------------------------------------------------------------------
 (3) _number_6                                             0     0      0       0
                         _encender_A
                         _encender_C
                         _encender_D
                         _encender_E
                         _encender_F
                         _encender_G
 ---------------------------------------------------------------------------------
 (3) _number_5                                             0     0      0       0
                         _encender_A
                         _encender_C
                         _encender_D
                         _encender_F
                         _encender_G
 ---------------------------------------------------------------------------------
 (3) _number_4                                             0     0      0       0
                         _encender_B
                         _encender_C
                         _encender_F
                         _encender_G
 ---------------------------------------------------------------------------------
 (3) _number_3                                             0     0      0       0
                         _encender_A
                         _encender_B
                         _encender_C
                         _encender_D
                         _encender_G
 ---------------------------------------------------------------------------------
 (3) _number_2                                             0     0      0       0
                         _encender_A
                         _encender_B
                         _encender_D
                         _encender_E
                         _encender_G
 ---------------------------------------------------------------------------------
 (2) _encender_G                                           0     0      0       0
          _tiempo_encendido_segmento
 ---------------------------------------------------------------------------------
 (3) _number_1                                             0     0      0       0
                         _encender_B
                         _encender_C
 ---------------------------------------------------------------------------------
 (3) _number_0                                             0     0      0       0
                         _encender_A
                         _encender_B
                         _encender_C
                         _encender_D
                         _encender_E
                         _encender_F
 ---------------------------------------------------------------------------------
 (2) _encender_F                                           0     0      0       0
          _tiempo_encendido_segmento
 ---------------------------------------------------------------------------------
 (2) _encender_E                                           0     0      0       0
          _tiempo_encendido_segmento
 ---------------------------------------------------------------------------------
 (4) _encender_D                                           0     0      0       0
          _tiempo_encendido_segmento
 ---------------------------------------------------------------------------------
 (2) _encender_C                                           0     0      0       0
          _tiempo_encendido_segmento
 ---------------------------------------------------------------------------------
 (2) _encender_B                                           0     0      0       0
          _tiempo_encendido_segmento
 ---------------------------------------------------------------------------------
 (2) _encender_A                                           0     0      0       0
          _tiempo_encendido_segmento
 ---------------------------------------------------------------------------------
 (3) _tiempo_encendido_segmento                            1     1      0       0
                                              0 COMRAM     1     1      0
 ---------------------------------------------------------------------------------
 (3) _apagar_segmentos                                     0     0      0       0
 ---------------------------------------------------------------------------------
 (2) ___wmul                                               6     2      4     245
                                              0 COMRAM     6     2      4
 ---------------------------------------------------------------------------------
 (2) ___awdiv                                              8     4      4     386
                                              0 COMRAM     8     4      4
 ---------------------------------------------------------------------------------
 Estimated maximum stack depth 4
 ---------------------------------------------------------------------------------

 Call Graph Graphs:

 _main (ROOT)
   _imprimir_temperatura
     ___awdiv
     ___wmul
     _construir_numero
       _apagar_segmentos
       _number_0
         _encender_A
           _tiempo_encendido_segmento
         _encender_B
           _tiempo_encendido_segmento
         _encender_C
           _tiempo_encendido_segmento
         _encender_D
           _tiempo_encendido_segmento
         _encender_E
           _tiempo_encendido_segmento
         _encender_F
           _tiempo_encendido_segmento
       _number_1
         _encender_B
           _tiempo_encendido_segmento
         _encender_C
           _tiempo_encendido_segmento
       _number_2
         _encender_A
           _tiempo_encendido_segmento
         _encender_B
           _tiempo_encendido_segmento
         _encender_D
           _tiempo_encendido_segmento
         _encender_E
           _tiempo_encendido_segmento
         _encender_G
           _tiempo_encendido_segmento
       _number_3
         _encender_A
           _tiempo_encendido_segmento
         _encender_B
           _tiempo_encendido_segmento
         _encender_C
           _tiempo_encendido_segmento
         _encender_D
           _tiempo_encendido_segmento
         _encender_G
           _tiempo_encendido_segmento
       _number_4
         _encender_B
           _tiempo_encendido_segmento
         _encender_C
           _tiempo_encendido_segmento
         _encender_F
           _tiempo_encendido_segmento
         _encender_G
           _tiempo_encendido_segmento
       _number_5
         _encender_A
           _tiempo_encendido_segmento
         _encender_C
           _tiempo_encendido_segmento
         _encender_D
           _tiempo_encendido_segmento
         _encender_F
           _tiempo_encendido_segmento
         _encender_G
           _tiempo_encendido_segmento
       _number_6
         _encender_A
           _tiempo_encendido_segmento
         _encender_C
           _tiempo_encendido_segmento
         _encender_D
           _tiempo_encendido_segmento
         _encender_E
           _tiempo_encendido_segmento
         _encender_F
           _tiempo_encendido_segmento
         _encender_G
           _tiempo_encendido_segmento
       _number_7
         _encender_A
           _tiempo_encendido_segmento
         _encender_B
           _tiempo_encendido_segmento
         _encender_C
           _tiempo_encendido_segmento
       _number_8
         _encender_A
           _tiempo_encendido_segmento
         _encender_B
           _tiempo_encendido_segmento
         _encender_C
           _tiempo_encendido_segmento
         _encender_D
           _tiempo_encendido_segmento
         _encender_E
           _tiempo_encendido_segmento
         _encender_F
           _tiempo_encendido_segmento
         _encender_G
           _tiempo_encendido_segmento
       _number_9
         _encender_A
           _tiempo_encendido_segmento
         _encender_B
           _tiempo_encendido_segmento
         _encender_C
           _tiempo_encendido_segmento
         _encender_D
           _tiempo_encendido_segmento
         _encender_F
           _tiempo_encendido_segmento
         _encender_G
           _tiempo_encendido_segmento
   _leer_temperatura
     _calcular_temperatura
       ___awtoft
         ___ftpack
       ___ftadd
         ___awtoft (ARG)
           ___ftpack
         ___ftmul (ARG)
           ___awtoft (ARG)
             ___ftpack
           ___ftpack (ARG)
         ___ftpack (ARG)
       ___ftmul
         ___awtoft (ARG)
           ___ftpack
         ___ftpack (ARG)
       ___fttol
         ___awtoft (ARG)
           ___ftpack
         ___ftadd (ARG)
           ___awtoft (ARG)
             ___ftpack
           ___ftmul (ARG)
             ___awtoft (ARG)
               ___ftpack
             ___ftpack (ARG)
           ___ftpack (ARG)
         ___ftmul (ARG)
           ___awtoft (ARG)
             ___ftpack
           ___ftpack (ARG)
   _mostrar_fuera_rango
     _encender_A
       _tiempo_encendido_segmento
     _encender_B
       _tiempo_encendido_segmento
     _encender_C
       _tiempo_encendido_segmento
     _encender_E
       _tiempo_encendido_segmento
     _encender_F
       _tiempo_encendido_segmento
     _encender_G
       _tiempo_encendido_segmento
   _setup

 Address spaces:
Name               Size   Autos  Total    Cost      Usage
BITCOMRAM           5F      0       0       0        0.0%
NULL                 0      0       0       0        0.0%
CODE                 0      0       0       0        0.0%
COMRAM              5F     41      41       1       68.4%
STACK                0      0       0       2        0.0%
DATA                 0      0       0       3        0.0%
BITBANK0            A0      0       0       4        0.0%
BANK0               A0      0       0       5        0.0%
ABS                  0      0       0       6        0.0%
BITBANK1           100      0       0       7        0.0%
BANK1              100      0       0       8        0.0%
BITBANK2           100      0       0       9        0.0%
BANK2              100      0       0      10        0.0%
BITBANK3           100      0       0      11        0.0%
BANK3              100      0       0      12        0.0%
BITBANK4           100      0       0      13        0.0%
BANK4              100      0       0      14        0.0%
BITBANK5           100      0       0      15        0.0%
BANK5              100      0       0      16        0.0%
BITBANK6           100      0       0      17        0.0%
BANK6              100      0       0      18        0.0%
BITBANK7           100      0       0      19        0.0%
BANK7              100      0       0      20        0.0%
BITBANK8           100      0       0      21        0.0%
BANK8              100      0       0      22        0.0%
BITBANK9           100      0       0      23        0.0%
BANK9              100      0       0      24        0.0%
BITBANK10          100      0       0      25        0.0%
BANK10             100      0       0      26        0.0%
BITBANK11          100      0       0      27        0.0%
BANK11             100      0       0      28        0.0%
BITBANK12          100      0       0      29        0.0%
BANK12             100      0       0      30        0.0%
BITBANK13          100      0       0      31        0.0%
BANK13             100      0       0      32        0.0%
BITBANK14           C0      0       0      33        0.0%
BANK14              C0      0       0      34        0.0%
BIGRAM             EBF      0       0      35        0.0%
BITSFR_2             0      0       0      40        0.0%
SFR_2                0      0       0      40        0.0%
BITSFR_1             0      0       0      40        0.0%
SFR_1                0      0       0      40        0.0%
BITSFR               0      0       0      40        0.0%
SFR                  0      0       0      40        0.0%


Microchip Technology PIC18 Macro Assembler V1.34 build -361300703 
Symbol Table                                                                                   Tue Oct 18 20:18:28 2016

                                l48 F868                        ___awdiv@sign 0006  
               ___wmul@multiplicand 0003                        __CFG_CP0$OFF 000000  
                      ___ftadd@exp1 0027                        ___ftadd@exp2 0026  
                      ___ftadd@sign 0025                                 l502 FEA2  
                               l513 FF64                                 l522 FF80  
                               l469 FC06                                 l498 FE78  
                               u631 FE44                                 u641 FE58  
                               u911 FD42                                 u841 FC40  
                               u930 FD7C                                 u861 FC68  
                               u935 FD74                                 wreg 000FE8  
                              l1211 FC20                                l1205 FC0E  
                              l1223 FE86                                l1311 FCB4  
                              l1401 FA5E                                l1321 FCE2  
                              l1411 FA7C                                l1403 FA64  
                              l1251 FF08                                l1235 FEBC  
                              l1315 FCC6                                l1405 FA6A  
                              l1341 F8E8                                l1253 FF14  
                              l1245 FEE4                                l1229 FEB0  
                              l1325 FCF4                                l1407 FA70  
                              l1415 FA82                                l1191 FBB6  
                              l1183 FB7A                                l1271 FF9E  
                              l1263 FF4C                                l1255 FF20  
                              l1319 FCDC                                l1351 FD5E  
                              l1511 FA06                                l1409 FA76  
                              l1281 FFD0                                l1265 FF58  
                              l1257 FF28                                l1329 FD0A  
                              l1513 FA0C                                l1451 FB12  
                              l1195 FBCE                                l1187 FB8A  
                              l1291 FC58                                l1515 FA16  
                              l1507 F9E2                                l1453 FB1C  
                              l1445 FAFC                                l1197 FBEE  
                              l1189 FB96                                l1381 FDFE  
                              l1373 FDD6                                l1471 FB5E  
                              l1463 FB42                                l1455 FB24  
                              l1439 FAEA                                l1199 FBFA  
                              l1383 FE08                                l1519 FA28  
                              l1393 FA46                                l1297 FC80  
                              l1369 FDC6                                l1467 FB4E  
                              l1395 FA4C                                l1387 FE20  
                              l1379 FDF0                                l1397 FA52  
                              l1399 FA58                    _construir_numero FA40  
                              u1107 F73E                                u1097 F872  
                              _main F9D4                        ___ftpack@arg 0001  
                      ___ftpack@exp 0004                       __CFG_T1DIG$ON 000000  
                              prodh 000FF4                                prodl 000FF3  
                              start 0000                       __CFG_IESO$OFF 000000  
                      ___ftmul@cntr 001A                        ___param_bank 000010  
                      ___ftmul@sign 001B                        ___fttol@exp1 0036  
                      ___fttol@lval 0032                       __CFG_PLLDIV$1 000000  
          __end_of_apagar_segmentos F738                               ?_main 0001  
                   __end_of___awdiv FB6A                     __end_of___ftadd FFF8  
                   __end_of___ftmul FD32                     ___awdiv@divisor 0003  
                   __end_of___fttol FE34                     ___awdiv@counter 0005  
     __size_of_imprimir_temperatura 0066                               _TRISA 000F92  
                             _TRISB 000F93                               _TRISC 000F94  
                    __CFG_FCMEN$OFF 000000                       ___awtoft@sign 000C  
                     ___ftpack@sign 0005                               _setup F89A  
                             main@i 003E                               status 000FD8  
                  _leer_temperatura F862             __CFG_DSWDTOSC$INTOSCREF 000000  
                   __initialization F710                        __end_of_main FA40  
                            ??_main 003E                       ___fttol@sign1 0031  
                     __activetblptr 000002         calcular_temperatura@voltage 0037  
                            _ADCON0 000FC2                              _ADCON1 000FC1  
                            _ADRESH 000FC4  __size_of_tiempo_encendido_segmento 0010  
                            _ANCON0 000F48                              _ANCON1 000F49  
                  ___awdiv@dividend 0001                              ?_setup 0001  
               _mostrar_fuera_rango F830                    __end_of___awtoft F90E  
                  __end_of___ftpack FC30                      __CFG_WDTEN$OFF 000000  
                    __CFG_WPCFG$OFF 000000                      __CFG_WPDIS$OFF 000000  
                    __CFG_XINST$OFF 000000                              ___wmul F808  
                         ??___awdiv 0005                           ??___ftadd 0022  
                    __CFG_STVREN$ON 000000                ?_mostrar_fuera_rango 0001  
                         ??___ftmul 0013                           ??___fttol 002C  
                  ___awdiv@quotient 0007               ___ftmul@f3_as_product 0017  
                  __end_of_number_0 F7B6                    __end_of_number_1 F706  
                  __end_of_number_2 F770                    __end_of_number_3 F786  
                  __end_of_number_4 F75A                    __end_of_number_5 F79C  
                  __end_of_number_6 F7D0                    __end_of_number_7 F728  
                  __end_of_number_8 F808                    __end_of_number_9 F7EA  
                            tblptru 000FF8   __end_of_tiempo_encendido_segmento F748  
                        __accesstop 0060             __end_of__initialization F710  
                        ___ftadd@f1 001C                          ___ftadd@f2 001F  
                     ___rparam_used 000001                          ___awtoft@c 0009  
                        ___ftmul@f1 000D                          ___ftmul@f2 0010  
                        ___fttol@f1 0028                      __pcstackCOMRAM 0001  
             ??_mostrar_fuera_rango 0002            __end_of_construir_numero FAD4  
                     __end_of_setup F8D2                     __CFG_DSWDTPS$G2 000000  
                   __CFG_OSC$INTOSC 000000                             ??_setup 0001  
     __size_of_calcular_temperatura 0060                             ?___wmul 0001  
                         ?___awtoft 0009                           ?___ftpack 0001  
                 ?_apagar_segmentos 0001                          _encender_A F6C0  
                        _encender_B F6CA                          _encender_C F6D4  
                        _encender_D F6DE                          _encender_E F6E8  
                        _encender_F F6F2                          _encender_G F706  
                ??_apagar_segmentos 0001            __end_of_leer_temperatura F89A  
      __end_of_imprimir_temperatura F9D4                             __Hparam 0000  
                           __Lparam 0000                           ?_number_0 0001  
                         ?_number_1 0001                           ?_number_2 0001  
                         ?_number_3 0001                           ?_number_4 0001  
                         ?_number_5 0001                           ?_number_6 0001  
                         ?_number_7 0001                           ?_number_8 0001  
                         ?_number_9 0001                             ___awdiv FAD4  
                           ___ftadd FE34                     __size_of___wmul 0028  
                           ___ftmul FC30                             ___fttol FD32  
                           __pcinit F710                          ??___awtoft 000C  
                        ??___ftpack 0006                             __ramtop 0F00  
                           __ptext0 F9D4                             __ptext1 F89A  
                           __ptext2 F830                             __ptext3 F862  
                           __ptext4 F90E                             __ptext5 FD32  
                           __ptext6 FC30                             __ptext7 FE34  
                           __ptext8 F8D2                             __ptext9 FB6A  
                         _T1CONbits 000FCD                end_of_initialization F710  
                     __Lmediumconst 0000             leer_temperatura@voltage 003C  
                        ??_number_0 0002                          ??_number_1 0002  
                        ??_number_2 0002                          ??_number_3 0002  
                        ??_number_4 0002                          ??_number_5 0002  
                        ??_number_6 0002                          ??_number_7 0002  
                        ??_number_8 0002                          ??_number_9 0002  
                         _PORTBbits 000F81                    __CFG_DSBOREN$OFF 000000  
                       ?_encender_A 0001                         ?_encender_B 0001  
                       ?_encender_C 0001                         ?_encender_D 0001  
                       ?_encender_E 0001                         ?_encender_F 0001  
                       ?_encender_G 0001                    __CFG_CPUDIV$OSC1 000000  
                  __CFG_IOL1WAY$OFF 000000                 __CFG_MSSP7B_EN$MSK7 000000  
                       ___ftmul@exp 0016                      __end_of___wmul F830  
                 ?_construir_numero 0002                  ??_construir_numero 0004  
                  __CFG_DSWDTEN$OFF 000000                _imprimir_temperatura F96E  
               start_initialization F710          ?_tiempo_encendido_segmento 0001  
       __end_of_mostrar_fuera_rango F862                 __size_of_encender_A 000A  
               __size_of_encender_B 000A                 __size_of_encender_C 000A  
               __size_of_encender_D 000A                 __size_of_encender_E 000A  
               __size_of_encender_F 000A                 __size_of_encender_G 000A  
                          ??___wmul 0005                    __CFG_LPT1OSC$OFF 000000  
      __end_of_calcular_temperatura F96E               ?_imprimir_temperatura 0009  
                 __size_of___awtoft 003C                   __size_of___ftpack 00C6  
                 ?_leer_temperatura 0039                  ??_leer_temperatura 003B  
         __size_of_apagar_segmentos 0010                            ?___awdiv 0001  
                          ?___ftadd 001C                            ?___ftmul 000D  
                          ?___fttol 0028                   __size_of_number_0 001A  
                 __size_of_number_1 000A                   __size_of_number_2 0016  
                 __size_of_number_3 0016                   __size_of_number_4 0012  
                 __size_of_number_5 0016                   __size_of_number_6 001A  
                 __size_of_number_7 000E                   __size_of_number_8 001E  
                 __size_of_number_9 001A                __CFG_RTCOSC$T1OSCREF 000000  
        imprimir_temperatura@decena 000D                      __size_of_setup 0038  
        imprimir_temperatura@unidad 000B                      ___wmul@product 0005  
                          _LATBbits 000F8A                            _LATCbits 000F8B  
                  __CFG_WDTPS$32768 000000              ??_imprimir_temperatura 000B  
                        _ADCON0bits 000FC2                   ___wmul@multiplier 0001  
                      ??_encender_A 0002                        ??_encender_B 0002  
                      ??_encender_C 0002                        ??_encender_D 0002  
                      ??_encender_E 0002                        ??_encender_F 0002  
                      ??_encender_G 0002                _calcular_temperatura F90E  
                          __Hrparam 0000                  __end_of_encender_A F6CA  
                __end_of_encender_B F6D4                  __end_of_encender_C F6DE  
                __end_of_encender_D F6E8                  __end_of_encender_E F6F2  
                __end_of_encender_F F6FC                  __end_of_encender_G F710  
                          __Lrparam 0000              construir_numero@number 0002  
                  __size_of___awdiv 0096                    __size_of___ftadd 01C4  
                  __size_of___ftmul 0102                    __size_of___fttol 0102  
                          ___awtoft F8D2                            ___ftpack FB6A  
                          __ptext10 F96E                            __ptext11 FA40  
                          __ptext20 F706                            __ptext12 F7D0  
                          __ptext21 F6FC                            __ptext13 F7EA  
                          __ptext30 F728                            __ptext22 F79C  
                          __ptext14 F71A                            __ptext31 F808  
                          __ptext23 F6F2                            __ptext15 F7B6  
                          __ptext32 FAD4                            __ptext24 F6E8  
                          __ptext16 F786                            __ptext25 F6DE  
                          __ptext17 F748                            __ptext26 F6D4  
                          __ptext18 F770                            __ptext27 F6CA  
                          __ptext19 F75A                            __ptext28 F6C0  
                          __ptext29 F738           __size_of_construir_numero 0094  
             ?_calcular_temperatura 0037                    _apagar_segmentos F728  
                     __size_of_main 006C         ??_tiempo_encendido_segmento 0001  
                          _number_0 F79C                            _number_1 F6FC  
                          _number_2 F75A                            _number_3 F770  
                          _number_4 F748                            _number_5 F786  
                          _number_6 F7B6                            _number_7 F71A  
                          _number_8 F7EA                            _number_9 F7D0  
                   main@temperatura 0040                         _OSCTUNEbits 000F9B  
         __size_of_leer_temperatura 0038                          _OSCCONbits 000FD3  
      __size_of_mostrar_fuera_rango 0032           _tiempo_encendido_segmento F738  
                        _RTCCFGbits 000F3F              ??_calcular_temperatura 0039  
          imprimir_temperatura@temp 0009  
